

Microchip Technology PIC LITE Macro Assembler V1.33 build 59893 
                                                                                               Tue May 20 21:37:17 2025

Microchip Technology Omniscient Code Generator (Lite mode) build 59893
     1                           	processor	16F877A
     2                           	opt	pw 120
     3                           	opt	lm
     4                           	psect	idataBANK0,global,class=CODE,delta=2
     5                           	psect	strings,global,class=STRING,delta=2
     6                           	psect	cinit,global,class=CODE,merge=1,delta=2
     7                           	psect	bitbssBANK0,global,bit,class=BANK0,space=1,delta=1
     8                           	psect	bssBANK0,global,class=BANK0,space=1,delta=1
     9                           	psect	dataBANK0,global,class=BANK0,space=1,delta=1
    10                           	psect	clrtext,global,class=CODE,delta=2
    11                           	psect	inittext,global,class=CODE,delta=2
    12                           	psect	cstackCOMMON,global,class=COMMON,space=1,delta=1
    13                           	psect	cstackBANK0,global,class=BANK0,space=1,delta=1
    14                           	psect	maintext,global,class=CODE,split=1,delta=2
    15                           	psect	text1,local,class=CODE,merge=1,delta=2
    16                           	psect	text2,local,class=CODE,merge=1,delta=2
    17                           	psect	text3,local,class=CODE,merge=1,delta=2
    18                           	psect	text4,local,class=CODE,merge=1,delta=2
    19                           	psect	text5,local,class=CODE,merge=1,delta=2
    20                           	psect	text6,local,class=CODE,merge=1,delta=2
    21                           	psect	text7,local,class=CODE,merge=1,delta=2
    22                           	psect	text8,local,class=CODE,merge=1,delta=2
    23                           	psect	text9,local,class=CODE,merge=1,delta=2
    24                           	psect	text10,local,class=CODE,merge=1,delta=2
    25                           	psect	text11,local,class=CODE,merge=1,delta=2
    26                           	psect	text12,local,class=CODE,merge=1,delta=2
    27                           	psect	text13,local,class=CODE,merge=1,delta=2
    28                           	psect	text14,local,class=CODE,merge=1,delta=2
    29                           	psect	text15,local,class=CODE,merge=1,delta=2
    30                           	psect	text16,local,class=CODE,merge=1,delta=2
    31                           	dabs	1,0x7E,2
    32  0000                     	;# 
    33  0001                     	;# 
    34  0002                     	;# 
    35  0003                     	;# 
    36  0004                     	;# 
    37  0005                     	;# 
    38  0006                     	;# 
    39  0007                     	;# 
    40  0008                     	;# 
    41  0009                     	;# 
    42  000A                     	;# 
    43  000B                     	;# 
    44  000C                     	;# 
    45  000D                     	;# 
    46  000E                     	;# 
    47  000E                     	;# 
    48  000F                     	;# 
    49  0010                     	;# 
    50  0011                     	;# 
    51  0012                     	;# 
    52  0013                     	;# 
    53  0014                     	;# 
    54  0015                     	;# 
    55  0015                     	;# 
    56  0016                     	;# 
    57  0017                     	;# 
    58  0018                     	;# 
    59  0019                     	;# 
    60  001A                     	;# 
    61  001B                     	;# 
    62  001B                     	;# 
    63  001C                     	;# 
    64  001D                     	;# 
    65  001E                     	;# 
    66  001F                     	;# 
    67  0081                     	;# 
    68  0085                     	;# 
    69  0086                     	;# 
    70  0087                     	;# 
    71  0088                     	;# 
    72  0089                     	;# 
    73  008C                     	;# 
    74  008D                     	;# 
    75  008E                     	;# 
    76  0091                     	;# 
    77  0092                     	;# 
    78  0093                     	;# 
    79  0094                     	;# 
    80  0098                     	;# 
    81  0099                     	;# 
    82  009C                     	;# 
    83  009D                     	;# 
    84  009E                     	;# 
    85  009F                     	;# 
    86  010C                     	;# 
    87  010D                     	;# 
    88  010E                     	;# 
    89  010F                     	;# 
    90  018C                     	;# 
    91  018D                     	;# 
    92                           
    93                           	psect	idataBANK0
    94  00BC                     __pidataBANK0:	
    95                           
    96                           ;initializer for _tick
    97  00BC  3430               	retlw	48
    98  00BD  3475               	retlw	117
    99                           
   100                           ;initializer for _trial
   101  00BE  3403               	retlw	3
   102  00BF  3400               	retlw	0
   103                           
   104                           ;initializer for _SERVO_MAX_POS
   105  00C0  346F               	retlw	111
   106                           
   107                           ;initializer for _SERVO_MID_POS
   108  00C1  348A               	retlw	138
   109                           
   110                           ;initializer for _SERVO_MIN_POS
   111  00C2  34A5               	retlw	165
   112                           
   113                           ;initializer for _currentPosition
   114  00C3  3496               	retlw	150
   115  0017                     _CCP1CON	set	23
   116  0015                     _CCPR1L	set	21
   117  0006                     _PORTB	set	6
   118  0007                     _PORTCbits	set	7
   119  0008                     _PORTD	set	8
   120  001A                     _RCREG	set	26
   121  0012                     _T2CON	set	18
   122  0019                     _TXREG	set	25
   123  00C4                     _CREN	set	196
   124  005F                     _GIE	set	95
   125  00C1                     _OERR	set	193
   126  005E                     _PEIE	set	94
   127  0028                     _RA0	set	40
   128  0029                     _RA1	set	41
   129  002A                     _RA2	set	42
   130  0065                     _RCIF	set	101
   131  0044                     _RD4	set	68
   132  00C7                     _SPEN	set	199
   133  0064                     _TXIF	set	100
   134  009F                     _ADCON1	set	159
   135  0092                     _PR2	set	146
   136  0099                     _SPBRG	set	153
   137  0085                     _TRISA	set	133
   138  0086                     _TRISB	set	134
   139  0087                     _TRISC	set	135
   140  0087                     _TRISCbits	set	135
   141  0088                     _TRISD	set	136
   142  0088                     _TRISDbits	set	136
   143  04C2                     _BRGH	set	1218
   144  0465                     _RCIE	set	1125
   145  04C4                     _SYNC	set	1220
   146  043A                     _TRISC2	set	1082
   147  04C5                     _TXEN	set	1221
   148                           
   149                           	psect	strings
   150  0003                     __pstrings:	
   151  0003                     stringtab:	
   152  0003                     __stringtab:	
   153  0003                     stringcode:	
   154                           ;	String table - string pointers are 1 byte each
   155                           
   156  0003                     stringdir:	
   157  0003  3000               	movlw	high stringdir
   158  0004  008A               	movwf	10
   159  0005  0804               	movf	4,w
   160  0006  0A84               	incf	4,f
   161  0007  0782               	addwf	2,f
   162  0008                     __stringbase:	
   163  0008  3400               	retlw	0
   164  0009                     __end_of__stringtab:	
   165  0009                     __stringdata:	
   166  0009                     STR_5:	
   167  0009  344E               	retlw	78	;'N'
   168  000A  344F               	retlw	79	;'O'
   169  000B  3420               	retlw	32	;' '
   170  000C  3454               	retlw	84	;'T'
   171  000D  3452               	retlw	82	;'R'
   172  000E  3449               	retlw	73	;'I'
   173  000F  3441               	retlw	65	;'A'
   174  0010  344C               	retlw	76	;'L'
   175  0011  3453               	retlw	83	;'S'
   176  0012  3420               	retlw	32	;' '
   177  0013  344C               	retlw	76	;'L'
   178  0014  3445               	retlw	69	;'E'
   179  0015  3446               	retlw	70	;'F'
   180  0016  3454               	retlw	84	;'T'
   181  0017  3400               	retlw	0
   182  0018                     STR_4:	
   183  0018  3449               	retlw	73	;'I'
   184  0019  344E               	retlw	78	;'N'
   185  001A  3456               	retlw	86	;'V'
   186  001B  3441               	retlw	65	;'A'
   187  001C  344C               	retlw	76	;'L'
   188  001D  3449               	retlw	73	;'I'
   189  001E  3444               	retlw	68	;'D'
   190  001F  3420               	retlw	32	;' '
   191  0020  3450               	retlw	80	;'P'
   192  0021  3449               	retlw	73	;'I'
   193  0022  344E               	retlw	78	;'N'
   194  0023  3421               	retlw	33	;'!'
   195  0024  3400               	retlw	0
   196  0025                     STR_3:	
   197  0025  345B               	retlw	91	;'['
   198  0026  3432               	retlw	50	;'2'
   199  0027  345D               	retlw	93	;']'
   200  0028  3445               	retlw	69	;'E'
   201  0029  346E               	retlw	110	;'n'
   202  002A  3474               	retlw	116	;'t'
   203  002B  3465               	retlw	101	;'e'
   204  002C  3472               	retlw	114	;'r'
   205  002D  3420               	retlw	32	;' '
   206  002E  3450               	retlw	80	;'P'
   207  002F  3449               	retlw	73	;'I'
   208  0030  344E               	retlw	78	;'N'
   209  0031  3400               	retlw	0
   210  0032                     STR_12:	
   211  0032  3441               	retlw	65	;'A'
   212  0033  346C               	retlw	108	;'l'
   213  0034  3472               	retlw	114	;'r'
   214  0035  3465               	retlw	101	;'e'
   215  0036  3461               	retlw	97	;'a'
   216  0037  3464               	retlw	100	;'d'
   217  0038  3479               	retlw	121	;'y'
   218  0039  3420               	retlw	32	;' '
   219  003A  3473               	retlw	115	;'s'
   220  003B  3465               	retlw	101	;'e'
   221  003C  3474               	retlw	116	;'t'
   222  003D  3400               	retlw	0
   223  003E                     STR_11:	
   224  003E  3445               	retlw	69	;'E'
   225  003F  344E               	retlw	78	;'N'
   226  0040  3454               	retlw	84	;'T'
   227  0041  3445               	retlw	69	;'E'
   228  0042  3452               	retlw	82	;'R'
   229  0043  3420               	retlw	32	;' '
   230  0044  3450               	retlw	80	;'P'
   231  0045  3449               	retlw	73	;'I'
   232  0046  344E               	retlw	78	;'N'
   233  0047  343A               	retlw	58	;':'
   234  0048  3400               	retlw	0
   235  0049                     STR_2:	
   236  0049  345B               	retlw	91	;'['
   237  004A  3431               	retlw	49	;'1'
   238  004B  345D               	retlw	93	;']'
   239  004C  3453               	retlw	83	;'S'
   240  004D  3465               	retlw	101	;'e'
   241  004E  3474               	retlw	116	;'t'
   242  004F  3420               	retlw	32	;' '
   243  0050  3450               	retlw	80	;'P'
   244  0051  3449               	retlw	73	;'I'
   245  0052  344E               	retlw	78	;'N'
   246  0053  3400               	retlw	0
   247  0054                     STR_13:	
   248  0054  3461               	retlw	97	;'a'
   249  0055  3420               	retlw	32	;' '
   250  0056  3470               	retlw	112	;'p'
   251  0057  3461               	retlw	97	;'a'
   252  0058  3473               	retlw	115	;'s'
   253  0059  3473               	retlw	115	;'s'
   254  005A  3477               	retlw	119	;'w'
   255  005B  346F               	retlw	111	;'o'
   256  005C  3472               	retlw	114	;'r'
   257  005D  3464               	retlw	100	;'d'
   258  005E  3400               	retlw	0
   259  005F                     STR_1:	
   260  005F  3456               	retlw	86	;'V'
   261  0060  3441               	retlw	65	;'A'
   262  0061  344C               	retlw	76	;'L'
   263  0062  3449               	retlw	73	;'I'
   264  0063  3444               	retlw	68	;'D'
   265  0064  3420               	retlw	32	;' '
   266  0065  3450               	retlw	80	;'P'
   267  0066  3449               	retlw	73	;'I'
   268  0067  344E               	retlw	78	;'N'
   269  0068  3400               	retlw	0
   270  0069                     STR_15:	
   271  0069  3450               	retlw	80	;'P'
   272  006A  3449               	retlw	73	;'I'
   273  006B  344E               	retlw	78	;'N'
   274  006C  3420               	retlw	32	;' '
   275  006D  3453               	retlw	83	;'S'
   276  006E  3445               	retlw	69	;'E'
   277  006F  3454               	retlw	84	;'T'
   278  0070  3421               	retlw	33	;'!'
   279  0071  3400               	retlw	0
   280  0072                     STR_14:	
   281  0072  3453               	retlw	83	;'S'
   282  0073  3445               	retlw	69	;'E'
   283  0074  3454               	retlw	84	;'T'
   284  0075  3420               	retlw	32	;' '
   285  0076  3450               	retlw	80	;'P'
   286  0077  3449               	retlw	73	;'I'
   287  0078  344E               	retlw	78	;'N'
   288  0079  343A               	retlw	58	;':'
   289  007A  3400               	retlw	0
   290  007B                     STR_8:	
   291  007B  344C               	retlw	76	;'L'
   292  007C  344F               	retlw	79	;'O'
   293  007D  3443               	retlw	67	;'C'
   294  007E  344B               	retlw	75	;'K'
   295  007F  3445               	retlw	69	;'E'
   296  0080  3444               	retlw	68	;'D'
   297  0081  3400               	retlw	0
   298  0082                     __end_of__stringdata:	
   299                           
   300                           ; #config settings
   301  0000                     
   302                           	psect	cinit
   303  07E7                     start_initialization:	
   304  07E7                     __initialization:	
   305                           
   306                           ; Clear objects allocated to BITBANK0
   307  07E7  01CE               	clrf	(__pbitbssBANK0/(0+8))& (0+127)
   308                           
   309                           ; Clear objects allocated to BANK0
   310  07E8  1383               	bcf	3,7	;select IRP bank0
   311  07E9  3035               	movlw	low __pbssBANK0
   312  07EA  0084               	movwf	4
   313  07EB  3046               	movlw	low (__pbssBANK0+17)
   314  07EC  120A  118A  20B4  120A  118A  	fcall	clear_ram0
   315                           
   316                           ; Initialize objects allocated to BANK0
   317  07F1  304E               	movlw	low (__pdataBANK0+8)
   318  07F2  00FD               	movwf	btemp+-1
   319  07F3  3000               	movlw	high __pidataBANK0
   320  07F4  00FE               	movwf	btemp
   321  07F5  30BC               	movlw	low __pidataBANK0
   322  07F6  00FF               	movwf	btemp+1
   323  07F7  3046               	movlw	low __pdataBANK0
   324  07F8  0084               	movwf	4
   325  07F9  120A  118A  20C8   	fcall	init_ram0
   326  07FC                     end_of_initialization:	
   327                           ;End of C runtime variable initialization code
   328                           
   329  07FC                     __end_of__initialization:	
   330  07FC  0183               	clrf	3
   331  07FD  120A  118A  2CF4   	ljmp	_main	;jump to C main() function
   332                           
   333                           	psect	bitbssBANK0
   334  0270                     __pbitbssBANK0:	
   335  0270                     _invalid_flag:	
   336  0270                     	ds	1
   337  0271                     _setpass_flag:	
   338  0271                     	ds	1
   339                           
   340                           	psect	bssBANK0
   341  0035                     __pbssBANK0:	
   342  0035                     _PIN:	
   343  0035                     	ds	8
   344  003D                     _correctPIN:	
   345  003D                     	ds	8
   346  0045                     _rx_data:	
   347  0045                     	ds	1
   348                           
   349                           	psect	dataBANK0
   350  0046                     __pdataBANK0:	
   351  0046                     _tick:	
   352  0046                     	ds	2
   353  0048                     _trial:	
   354  0048                     	ds	2
   355  004A                     _SERVO_MAX_POS:	
   356  004A                     	ds	1
   357  004B                     _SERVO_MID_POS:	
   358  004B                     	ds	1
   359  004C                     _SERVO_MIN_POS:	
   360  004C                     	ds	1
   361  004D                     _currentPosition:	
   362  004D                     	ds	1
   363                           
   364                           	psect	clrtext
   365  00B4                     clear_ram0:	
   366                           ;	Called with FSR containing the base address, and
   367                           ;	W with the last address+1
   368                           
   369  00B4  0064               	clrwdt	;clear the watchdog before getting into this loop
   370  00B5                     clrloop0:	
   371  00B5  0180               	clrf	0	;clear RAM location pointed to by FSR
   372  00B6  0A84               	incf	4,f	;increment pointer
   373  00B7  0604               	xorwf	4,w	;XOR with final address
   374  00B8  1903               	btfsc	3,2	;have we reached the end yet?
   375  00B9  3400               	retlw	0	;all done for this memory range, return
   376  00BA  0604               	xorwf	4,w	;XOR again to restore value
   377  00BB  28B5               	goto	clrloop0	;do the next byte
   378                           
   379                           	psect	inittext
   380  00C4                     init_fetch0:	
   381                           ;	Called with low address in FSR and high address in W
   382                           
   383  00C4  087E               	movf	126,w
   384  00C5  008A               	movwf	10
   385  00C6  087F               	movf	127,w
   386  00C7  0082               	movwf	2
   387  00C8                     init_ram0:	
   388                           ;Called with:
   389                           ;	high address of idata address in btemp 
   390                           ;	low address of idata address in btemp+1 
   391                           ;	low address of data in FSR
   392                           ;	high address + 1 of data in btemp-1
   393                           
   394  00C8  20C4  120A  118A   	fcall	init_fetch0
   395  00CB  0080               	movwf	0
   396  00CC  0A84               	incf	4,f
   397  00CD  0804               	movf	4,w
   398  00CE  067D               	xorwf	125,w
   399  00CF  1903               	btfsc	3,2
   400  00D0  3400               	retlw	0
   401  00D1  0AFF               	incf	127,f
   402  00D2  1903               	btfsc	3,2
   403  00D3  0AFE               	incf	126,f
   404  00D4  28C8               	goto	init_ram0
   405                           
   406                           	psect	cstackCOMMON
   407  0070                     __pcstackCOMMON:	
   408  0070                     ?_setServoPosition:	
   409  0070                     ?_initialize:	
   410                           ; 0 bytes @ 0x0
   411                           
   412  0070                     ?_moveToPosition:	
   413                           ; 0 bytes @ 0x0
   414                           
   415  0070                     ?_setServoClockwise:	
   416                           ; 0 bytes @ 0x0
   417                           
   418  0070                     ?_setServoCounterClockwise:	
   419                           ; 0 bytes @ 0x0
   420                           
   421  0070                     ?_LCD_delay:	
   422                           ; 0 bytes @ 0x0
   423                           
   424  0070                     ?_instCtrl:	
   425                           ; 0 bytes @ 0x0
   426                           
   427  0070                     ?_initLCD:	
   428                           ; 0 bytes @ 0x0
   429                           
   430  0070                     ?_dataCtrl:	
   431                           ; 0 bytes @ 0x0
   432                           
   433  0070                     ?_displayMsg:	
   434                           ; 0 bytes @ 0x0
   435                           
   436  0070                     ?_setPass:	
   437                           ; 0 bytes @ 0x0
   438                           
   439  0070                     ?_locked:	
   440                           ; 0 bytes @ 0x0
   441                           
   442  0070                     ??_locked:	
   443                           ; 0 bytes @ 0x0
   444                           
   445  0070                     ?_verifyPIN:	
   446                           ; 0 bytes @ 0x0
   447                           
   448  0070                     ?_enterPass:	
   449                           ; 0 bytes @ 0x0
   450                           
   451  0070                     ?_setup:	
   452                           ; 0 bytes @ 0x0
   453                           
   454  0070                     ??_setup:	
   455                           ; 0 bytes @ 0x0
   456                           
   457  0070                     ?_main:	
   458                           ; 0 bytes @ 0x0
   459                           
   460  0070                     ?___wmul:	
   461                           ; 0 bytes @ 0x0
   462                           
   463  0070                     LCD_delay@MUL:	
   464                           ; 2 bytes @ 0x0
   465                           
   466  0070                     ___wmul@multiplier:	
   467                           ; 2 bytes @ 0x0
   468                           
   469                           
   470                           ; 2 bytes @ 0x0
   471  0070                     	ds	2
   472  0072                     ??_LCD_delay:	
   473  0072                     LCD_delay@i:	
   474                           ; 0 bytes @ 0x2
   475                           
   476  0072                     ___wmul@multiplicand:	
   477                           ; 2 bytes @ 0x2
   478                           
   479                           
   480                           ; 2 bytes @ 0x2
   481  0072                     	ds	2
   482  0074                     ??___wmul:	
   483  0074                     LCD_delay@j:	
   484                           ; 0 bytes @ 0x4
   485                           
   486  0074                     ___wmul@product:	
   487                           ; 2 bytes @ 0x4
   488                           
   489                           
   490                           ; 2 bytes @ 0x4
   491  0074                     	ds	2
   492  0076                     ??_setServoPosition:	
   493  0076                     ??_instCtrl:	
   494                           ; 0 bytes @ 0x6
   495                           
   496  0076                     ??_dataCtrl:	
   497                           ; 0 bytes @ 0x6
   498                           
   499  0076                     instCtrl@INST:	
   500                           ; 0 bytes @ 0x6
   501                           
   502  0076                     dataCtrl@DATA:	
   503                           ; 1 bytes @ 0x6
   504                           
   505                           
   506                           ; 1 bytes @ 0x6
   507  0076                     	ds	1
   508  0077                     ??_initLCD:	
   509  0077                     ??_displayMsg:	
   510                           ; 0 bytes @ 0x7
   511                           
   512  0077                     ??_setPass:	
   513                           ; 0 bytes @ 0x7
   514                           
   515  0077                     displayMsg@i:	
   516                           ; 0 bytes @ 0x7
   517                           
   518                           
   519                           ; 2 bytes @ 0x7
   520  0077                     	ds	1
   521  0078                     setServoPosition@scaledPosition:	
   522                           
   523                           ; 2 bytes @ 0x8
   524  0078                     	ds	1
   525  0079                     displayMsg@message:	
   526  0079                     setPass@keyData:	
   527                           ; 1 bytes @ 0x9
   528                           
   529                           
   530                           ; 1 bytes @ 0x9
   531  0079                     	ds	1
   532  007A                     setServoPosition@duty:	
   533  007A                     setPass@i:	
   534                           ; 2 bytes @ 0xA
   535                           
   536                           
   537                           ; 2 bytes @ 0xA
   538  007A                     	ds	2
   539  007C                     setServoPosition@position:	
   540                           
   541                           ; 1 bytes @ 0xC
   542  007C                     	ds	1
   543  007D                     ??_setServoClockwise:	
   544  007D                     ??_setServoCounterClockwise:	
   545                           ; 0 bytes @ 0xD
   546                           
   547  007D                     main@INPUT:	
   548                           ; 0 bytes @ 0xD
   549                           
   550                           
   551                           ; 1 bytes @ 0xD
   552  007D                     	ds	1
   553                           
   554                           	psect	cstackBANK0
   555  0020                     __pcstackBANK0:	
   556  0020                     ??_initialize:	
   557  0020                     ??_moveToPosition:	
   558                           ; 0 bytes @ 0x0
   559                           
   560                           
   561                           ; 0 bytes @ 0x0
   562  0020                     	ds	3
   563  0023                     moveToPosition@pos:	
   564                           
   565                           ; 1 bytes @ 0x3
   566  0023                     	ds	1
   567  0024                     moveToPosition@pos_166:	
   568                           
   569                           ; 1 bytes @ 0x4
   570  0024                     	ds	1
   571  0025                     moveToPosition@position:	
   572                           
   573                           ; 1 bytes @ 0x5
   574  0025                     	ds	1
   575  0026                     ??_verifyPIN:	
   576                           
   577                           ; 0 bytes @ 0x6
   578  0026                     	ds	3
   579  0029                     verifyPIN@match:	
   580                           
   581                           ; 2 bytes @ 0x9
   582  0029                     	ds	2
   583  002B                     verifyPIN@i:	
   584                           
   585                           ; 2 bytes @ 0xB
   586  002B                     	ds	2
   587  002D                     ??_enterPass:	
   588                           
   589                           ; 0 bytes @ 0xD
   590  002D                     	ds	2
   591  002F                     enterPass@keyData:	
   592                           
   593                           ; 1 bytes @ 0xF
   594  002F                     	ds	1
   595  0030                     enterPass@j:	
   596                           
   597                           ; 2 bytes @ 0x10
   598  0030                     	ds	2
   599  0032                     ??_main:	
   600                           
   601                           ; 0 bytes @ 0x12
   602  0032                     	ds	3
   603                           
   604                           	psect	maintext
   605  04F4                     __pmaintext:	
   606 ;;
   607 ;;Main: autosize = 0, tempsize = 3, incstack = 0, save=0
   608 ;;
   609 ;; *************** function _main *****************
   610 ;; Defined at:
   611 ;;		line 342 in file "D:\From old laptop\Subjects\Uni\3rd Year M\2nd sem\Embedded Systems\Final\door-lock-system\door-lo
      +ck-system.c"
   612 ;; Parameters:    Size  Location     Type
   613 ;;		None
   614 ;; Auto vars:     Size  Location     Type
   615 ;;  INPUT           1   13[COMMON] unsigned char 
   616 ;; Return value:  Size  Location     Type
   617 ;;		None               void
   618 ;; Registers used:
   619 ;;		wreg, fsr0l, fsr0h, status,2, status,0, btemp+1, pclath, cstack
   620 ;; Tracked objects:
   621 ;;		On entry : 17F/0
   622 ;;		On exit  : 0/0
   623 ;;		Unchanged: 0/0
   624 ;; Data sizes:     COMMON   BANK0   BANK1   BANK3   BANK2
   625 ;;      Params:         0       0       0       0       0
   626 ;;      Locals:         1       0       0       0       0
   627 ;;      Temps:          0       3       0       0       0
   628 ;;      Totals:         1       3       0       0       0
   629 ;;Total ram usage:        4 bytes
   630 ;; Hardware stack levels required when called:    6
   631 ;; This function calls:
   632 ;;		_displayMsg
   633 ;;		_enterPass
   634 ;;		_initLCD
   635 ;;		_initialize
   636 ;;		_instCtrl
   637 ;;		_setPass
   638 ;;		_setServoClockwise
   639 ;;		_setServoCounterClockwise
   640 ;;		_setup
   641 ;; This function is called by:
   642 ;;		Startup code after reset
   643 ;; This function uses a non-reentrant model
   644 ;;
   645                           
   646                           
   647                           ;psect for function _main
   648  04F4                     _main:	
   649                           
   650                           ;door-lock-system.c: 343: ADCON1 = 0x06;
   651                           
   652                           ;incstack = 0
   653                           ; Regs used in _main: [wreg-fsr0h+status,2+status,0+btemp+1+pclath+cstack]
   654  04F4  3006               	movlw	6
   655  04F5  1683               	bsf	3,5	;RP0=1, select bank1
   656  04F6  1303               	bcf	3,6	;RP1=0, select bank1
   657  04F7  009F               	movwf	31	;volatile
   658                           
   659                           ;door-lock-system.c: 344: TRISA = 0x00;
   660  04F8  0185               	clrf	5	;volatile
   661                           
   662                           ;door-lock-system.c: 345: TRISB = 0x00;
   663  04F9  0186               	clrf	6	;volatile
   664                           
   665                           ;door-lock-system.c: 346: TRISC = 0x00;
   666  04FA  0187               	clrf	7	;volatile
   667                           
   668                           ;door-lock-system.c: 347: TRISD = 0xFF;
   669  04FB  30FF               	movlw	255
   670  04FC  0088               	movwf	8	;volatile
   671                           
   672                           ;door-lock-system.c: 349: initLCD();
   673  04FD  120A  118A  2161  120A  118A  	fcall	_initLCD
   674                           
   675                           ;door-lock-system.c: 351: instCtrl(0x80);
   676  0502  3080               	movlw	128
   677  0503  120A  118A  20E8  120A  118A  	fcall	_instCtrl
   678                           
   679                           ;door-lock-system.c: 352: displayMsg("[1]Set PIN");
   680  0508  3041               	movlw	(STR_2-__stringbase)& (0+255)
   681  0509  120A  118A  211C  120A  118A  	fcall	_displayMsg
   682                           
   683                           ;door-lock-system.c: 353: instCtrl(0xC0);
   684  050E  30C0               	movlw	192
   685  050F  120A  118A  20E8  120A  118A  	fcall	_instCtrl
   686                           
   687                           ;door-lock-system.c: 354: displayMsg("[2]Enter PIN");
   688  0514  301D               	movlw	(STR_3-__stringbase)& (0+255)
   689  0515  120A  118A  211C  120A  118A  	fcall	_displayMsg
   690                           
   691                           ;door-lock-system.c: 356: initialize();
   692  051A  120A  118A  21B6  120A  118A  	fcall	_initialize
   693                           
   694                           ;door-lock-system.c: 357: setup();
   695  051F  120A  118A  20FB  120A  118A  	fcall	_setup
   696                           
   697                           ;door-lock-system.c: 359: setServoClockwise();
   698  0524  120A  118A  20A6  120A  118A  	fcall	_setServoClockwise
   699  0529                     l1674:	
   700                           ;door-lock-system.c: 361: while (1) {
   701                           
   702                           
   703                           ;door-lock-system.c: 363: if (RCIF) {
   704  0529  1283               	bcf	3,5	;RP0=0, select bank0
   705  052A  1303               	bcf	3,6	;RP1=0, select bank0
   706  052B  1E8C               	btfss	12,5	;volatile
   707  052C  2D85               	goto	l1714
   708                           
   709                           ;door-lock-system.c: 364: if (OERR) {
   710  052D  1C98               	btfss	24,1	;volatile
   711  052E  2D31               	goto	l1680
   712                           
   713                           ;door-lock-system.c: 365: CREN = 0;
   714  052F  1218               	bcf	24,4	;volatile
   715                           
   716                           ;door-lock-system.c: 366: CREN = 1;
   717  0530  1618               	bsf	24,4	;volatile
   718  0531                     l1680:	
   719                           
   720                           ;door-lock-system.c: 367: }
   721                           ;door-lock-system.c: 368: rx_data = RCREG;
   722  0531  081A               	movf	26,w	;volatile
   723  0532  00B2               	movwf	??_main
   724  0533  0832               	movf	??_main,w
   725  0534  00C5               	movwf	_rx_data	;volatile
   726                           
   727                           ;door-lock-system.c: 370: if (rx_data == 'A') {
   728  0535  0845               	movf	_rx_data,w	;volatile
   729  0536  3A41               	xorlw	65
   730  0537  1D03               	skipz
   731  0538  2D5F               	goto	l1700
   732                           
   733                           ;door-lock-system.c: 371: setServoClockwise();
   734  0539  120A  118A  20A6  120A  118A  	fcall	_setServoClockwise
   735                           
   736                           ;door-lock-system.c: 372: initLCD();
   737  053E  120A  118A  2161  120A  118A  	fcall	_initLCD
   738                           
   739                           ;door-lock-system.c: 374: instCtrl(0x80);
   740  0543  3080               	movlw	128
   741  0544  120A  118A  20E8  120A  118A  	fcall	_instCtrl
   742                           
   743                           ;door-lock-system.c: 375: displayMsg("LOCKED");
   744  0549  3073               	movlw	(STR_8-__stringbase)& (0+255)
   745  054A  120A  118A  211C  120A  118A  	fcall	_displayMsg
   746  054F                     l1690:	
   747                           ;door-lock-system.c: 378: while (1) {
   748                           
   749                           
   750                           ;door-lock-system.c: 379: if (RCIF) {
   751  054F  1283               	bcf	3,5	;RP0=0, select bank0
   752  0550  1303               	bcf	3,6	;RP1=0, select bank0
   753  0551  1E8C               	btfss	12,5	;volatile
   754  0552  2D4F               	goto	l1690
   755                           
   756                           ;door-lock-system.c: 380: if (OERR) {
   757  0553  1C98               	btfss	24,1	;volatile
   758  0554  2D57               	goto	l1696
   759                           
   760                           ;door-lock-system.c: 381: CREN = 0;
   761  0555  1218               	bcf	24,4	;volatile
   762                           
   763                           ;door-lock-system.c: 382: CREN = 1;
   764  0556  1618               	bsf	24,4	;volatile
   765  0557                     l1696:	
   766                           
   767                           ;door-lock-system.c: 383: }
   768                           ;door-lock-system.c: 384: rx_data = RCREG;
   769  0557  081A               	movf	26,w	;volatile
   770  0558  00B2               	movwf	??_main
   771  0559  0832               	movf	??_main,w
   772  055A  00C5               	movwf	_rx_data	;volatile
   773                           
   774                           ;door-lock-system.c: 385: if (rx_data == 'B') {
   775  055B  0845               	movf	_rx_data,w	;volatile
   776  055C  3A42               	xorlw	66
   777  055D  1D03               	skipz
   778  055E  2D4F               	goto	l1690
   779  055F                     l1700:	
   780                           ;door-lock-system.c: 386: break;
   781                           
   782                           
   783                           ;door-lock-system.c: 387: }
   784                           ;door-lock-system.c: 388: }
   785                           ;door-lock-system.c: 389: }
   786                           ;door-lock-system.c: 390: }
   787                           ;door-lock-system.c: 392: if (rx_data == 'B') {
   788  055F  0845               	movf	_rx_data,w	;volatile
   789  0560  3A42               	xorlw	66
   790  0561  1D03               	skipz
   791  0562  2D85               	goto	l1714
   792                           
   793                           ;door-lock-system.c: 393: setServoCounterClockwise();
   794  0563  120A  118A  20AD  120A  118A  	fcall	_setServoCounterClockwise
   795                           
   796                           ;door-lock-system.c: 394: initLCD();
   797  0568  120A  118A  2161  120A  118A  	fcall	_initLCD
   798                           
   799                           ;door-lock-system.c: 395: instCtrl(0x80);
   800  056D  3080               	movlw	128
   801  056E  120A  118A  20E8  120A  118A  	fcall	_instCtrl
   802                           
   803                           ;door-lock-system.c: 396: displayMsg("[1]Set PIN");
   804  0573  3041               	movlw	(STR_2-__stringbase)& (0+255)
   805  0574  120A  118A  211C  120A  118A  	fcall	_displayMsg
   806                           
   807                           ;door-lock-system.c: 397: instCtrl(0xC0);
   808  0579  30C0               	movlw	192
   809  057A  120A  118A  20E8  120A  118A  	fcall	_instCtrl
   810                           
   811                           ;door-lock-system.c: 398: displayMsg("[2]Enter PIN");
   812  057F  301D               	movlw	(STR_3-__stringbase)& (0+255)
   813  0580  120A  118A  211C  120A  118A  	fcall	_displayMsg
   814  0585                     l1714:	
   815                           
   816                           ;door-lock-system.c: 399: }
   817                           ;door-lock-system.c: 400: }
   818                           ;door-lock-system.c: 402: if(invalid_flag == 1) {
   819  0585  1283               	bcf	3,5	;RP0=0, select bank0
   820  0586  1303               	bcf	3,6	;RP1=0, select bank0
   821  0587  1C4E               	btfss	_invalid_flag/(0+8),_invalid_flag& (0+7)
   822  0588  2D9A               	goto	l1722
   823                           
   824                           ;door-lock-system.c: 403: instCtrl(0x01);
   825  0589  3001               	movlw	1
   826  058A  120A  118A  20E8  120A  118A  	fcall	_instCtrl
   827                           
   828                           ;door-lock-system.c: 404: displayMsg("ENTER PIN:");
   829  058F  3036               	movlw	(STR_11-__stringbase)& (0+255)
   830  0590  120A  118A  211C  120A  118A  	fcall	_displayMsg
   831                           
   832                           ;door-lock-system.c: 405: enterPass();
   833  0595  120A  118A  23B3  120A  118A  	fcall	_enterPass
   834  059A                     l1722:	
   835                           
   836                           ;door-lock-system.c: 406: }
   837                           ;door-lock-system.c: 408: if (RD4) {
   838  059A  1283               	bcf	3,5	;RP0=0, select bank0
   839  059B  1303               	bcf	3,6	;RP1=0, select bank0
   840  059C  1E08               	btfss	8,4	;volatile
   841  059D  2D29               	goto	l1674
   842                           
   843                           ;door-lock-system.c: 409: _delay((unsigned long)((500)*(4000000/4000.0)));
   844  059E  3003               	movlw	3
   845  059F  00B4               	movwf	??_main+2
   846  05A0  308A               	movlw	138
   847  05A1  00B3               	movwf	??_main+1
   848  05A2  3056               	movlw	86
   849  05A3  00B2               	movwf	??_main
   850  05A4                     u917:	
   851  05A4  0BB2               	decfsz	??_main,f
   852  05A5  2DA4               	goto	u917
   853  05A6  0BB3               	decfsz	??_main+1,f
   854  05A7  2DA4               	goto	u917
   855  05A8  0BB4               	decfsz	??_main+2,f
   856  05A9  2DA4               	goto	u917
   857  05AA  2DAB               	nop2
   858                           
   859                           ;door-lock-system.c: 410: unsigned char INPUT = PORTD & 0x0F;
   860  05AB  1283               	bcf	3,5	;RP0=0, select bank0
   861  05AC  1303               	bcf	3,6	;RP1=0, select bank0
   862  05AD  0808               	movf	8,w	;volatile
   863  05AE  390F               	andlw	15
   864  05AF  00B2               	movwf	??_main
   865  05B0  0832               	movf	??_main,w
   866  05B1  00FD               	movwf	main@INPUT
   867  05B2                     l237:	
   868                           ;door-lock-system.c: 411: while (RD4);
   869                           
   870  05B2  1A08               	btfsc	8,4	;volatile
   871  05B3  2DB2               	goto	l237
   872                           
   873                           ;door-lock-system.c: 413: if (INPUT == 0x00) {
   874  05B4  08FD               	movf	main@INPUT,f
   875  05B5  1D03               	skipz
   876  05B6  2E31               	goto	l1760
   877                           
   878                           ;door-lock-system.c: 414: if(setpass_flag == 1) {
   879  05B7  1CCE               	btfss	_setpass_flag/(0+8),_setpass_flag& (0+7)
   880  05B8  2DE7               	goto	l1740
   881                           
   882                           ;door-lock-system.c: 415: instCtrl(0x01);
   883  05B9  3001               	movlw	1
   884  05BA  120A  118A  20E8  120A  118A  	fcall	_instCtrl
   885                           
   886                           ;door-lock-system.c: 416: instCtrl(0x80);
   887  05BF  3080               	movlw	128
   888  05C0  120A  118A  20E8  120A  118A  	fcall	_instCtrl
   889                           
   890                           ;door-lock-system.c: 417: displayMsg("Already set");
   891  05C5  302A               	movlw	(STR_12-__stringbase)& (0+255)
   892  05C6  120A  118A  211C  120A  118A  	fcall	_displayMsg
   893                           
   894                           ;door-lock-system.c: 418: instCtrl(0xC0);
   895  05CB  30C0               	movlw	192
   896  05CC  120A  118A  20E8  120A  118A  	fcall	_instCtrl
   897                           
   898                           ;door-lock-system.c: 419: displayMsg("a password");
   899  05D1  304C               	movlw	(STR_13-__stringbase)& (0+255)
   900  05D2  120A  118A  211C  120A  118A  	fcall	_displayMsg
   901                           
   902                           ;door-lock-system.c: 420: _delay((unsigned long)((1000)*(4000000/4000.0)));
   903  05D7  3006               	movlw	6
   904  05D8  1283               	bcf	3,5	;RP0=0, select bank0
   905  05D9  1303               	bcf	3,6	;RP1=0, select bank0
   906  05DA  00B4               	movwf	??_main+2
   907  05DB  3013               	movlw	19
   908  05DC  00B3               	movwf	??_main+1
   909  05DD  30B1               	movlw	177
   910  05DE  00B2               	movwf	??_main
   911  05DF                     u927:	
   912  05DF  0BB2               	decfsz	??_main,f
   913  05E0  2DDF               	goto	u927
   914  05E1  0BB3               	decfsz	??_main+1,f
   915  05E2  2DDF               	goto	u927
   916  05E3  0BB4               	decfsz	??_main+2,f
   917  05E4  2DDF               	goto	u927
   918  05E5  2DE6               	nop2
   919                           
   920                           ;door-lock-system.c: 421: }
   921  05E6  2E13               	goto	l1750
   922  05E7                     l1740:	
   923                           
   924                           ;door-lock-system.c: 422: else {
   925                           ;door-lock-system.c: 423: instCtrl(0x01);
   926  05E7  3001               	movlw	1
   927  05E8  120A  118A  20E8  120A  118A  	fcall	_instCtrl
   928                           
   929                           ;door-lock-system.c: 424: displayMsg("SET PIN:");
   930  05ED  306A               	movlw	(STR_14-__stringbase)& (0+255)
   931  05EE  120A  118A  211C  120A  118A  	fcall	_displayMsg
   932                           
   933                           ;door-lock-system.c: 425: setPass();
   934  05F3  120A  118A  2647  120A  118A  	fcall	_setPass
   935                           
   936                           ;door-lock-system.c: 426: instCtrl(0x01);
   937  05F8  3001               	movlw	1
   938  05F9  120A  118A  20E8  120A  118A  	fcall	_instCtrl
   939                           
   940                           ;door-lock-system.c: 427: displayMsg("PIN SET!");
   941  05FE  3061               	movlw	(STR_15-__stringbase)& (0+255)
   942  05FF  120A  118A  211C  120A  118A  	fcall	_displayMsg
   943                           
   944                           ;door-lock-system.c: 428: _delay((unsigned long)((1000)*(4000000/4000.0)));
   945  0604  3006               	movlw	6
   946  0605  1283               	bcf	3,5	;RP0=0, select bank0
   947  0606  1303               	bcf	3,6	;RP1=0, select bank0
   948  0607  00B4               	movwf	??_main+2
   949  0608  3013               	movlw	19
   950  0609  00B3               	movwf	??_main+1
   951  060A  30B1               	movlw	177
   952  060B  00B2               	movwf	??_main
   953  060C                     u937:	
   954  060C  0BB2               	decfsz	??_main,f
   955  060D  2E0C               	goto	u937
   956  060E  0BB3               	decfsz	??_main+1,f
   957  060F  2E0C               	goto	u937
   958  0610  0BB4               	decfsz	??_main+2,f
   959  0611  2E0C               	goto	u937
   960  0612  2E13               	nop2
   961  0613                     l1750:	
   962                           
   963                           ;door-lock-system.c: 429: }
   964                           ;door-lock-system.c: 430: initLCD();
   965  0613  120A  118A  2161  120A  118A  	fcall	_initLCD
   966                           
   967                           ;door-lock-system.c: 431: instCtrl(0x80);
   968  0618  3080               	movlw	128
   969  0619  120A  118A  20E8  120A  118A  	fcall	_instCtrl
   970                           
   971                           ;door-lock-system.c: 432: displayMsg("[1]Set PIN");
   972  061E  3041               	movlw	(STR_2-__stringbase)& (0+255)
   973  061F  120A  118A  211C  120A  118A  	fcall	_displayMsg
   974                           
   975                           ;door-lock-system.c: 433: instCtrl(0xC0);
   976  0624  30C0               	movlw	192
   977  0625  120A  118A  20E8  120A  118A  	fcall	_instCtrl
   978                           
   979                           ;door-lock-system.c: 434: displayMsg("[2]Enter PIN");
   980  062A  301D               	movlw	(STR_3-__stringbase)& (0+255)
   981  062B  120A  118A  211C  120A  118A  	fcall	_displayMsg
   982                           
   983                           ;door-lock-system.c: 435: }
   984  0630  2D29               	goto	l1674
   985  0631                     l1760:	
   986                           
   987                           ;door-lock-system.c: 436: else if (INPUT == 0x01) {
   988  0631  087D               	movf	main@INPUT,w
   989  0632  3A01               	xorlw	1
   990  0633  1D03               	skipz
   991  0634  2D29               	goto	l1674
   992                           
   993                           ;door-lock-system.c: 437: instCtrl(0x01);
   994  0635  3001               	movlw	1
   995  0636  120A  118A  20E8  120A  118A  	fcall	_instCtrl
   996                           
   997                           ;door-lock-system.c: 438: displayMsg("ENTER PIN:");
   998  063B  3036               	movlw	(STR_11-__stringbase)& (0+255)
   999  063C  120A  118A  211C  120A  118A  	fcall	_displayMsg
  1000                           
  1001                           ;door-lock-system.c: 439: enterPass();
  1002  0641  120A  118A  23B3  120A  118A  	fcall	_enterPass
  1003  0646  2D29               	goto	l1674
  1004  0647                     __end_of_main:	
  1005                           
  1006                           	psect	text1
  1007  00FB                     __ptext1:	
  1008 ;; *************** function _setup *****************
  1009 ;; Defined at:
  1010 ;;		line 319 in file "D:\From old laptop\Subjects\Uni\3rd Year M\2nd sem\Embedded Systems\Final\door-lock-system\door-lo
      +ck-system.c"
  1011 ;; Parameters:    Size  Location     Type
  1012 ;;		None
  1013 ;; Auto vars:     Size  Location     Type
  1014 ;;		None
  1015 ;; Return value:  Size  Location     Type
  1016 ;;		None               void
  1017 ;; Registers used:
  1018 ;;		wreg, status,2
  1019 ;; Tracked objects:
  1020 ;;		On entry : 0/0
  1021 ;;		On exit  : 0/0
  1022 ;;		Unchanged: 0/0
  1023 ;; Data sizes:     COMMON   BANK0   BANK1   BANK3   BANK2
  1024 ;;      Params:         0       0       0       0       0
  1025 ;;      Locals:         0       0       0       0       0
  1026 ;;      Temps:          0       0       0       0       0
  1027 ;;      Totals:         0       0       0       0       0
  1028 ;;Total ram usage:        0 bytes
  1029 ;; Hardware stack levels used:    1
  1030 ;; This function calls:
  1031 ;;		Nothing
  1032 ;; This function is called by:
  1033 ;;		_main
  1034 ;; This function uses a non-reentrant model
  1035 ;;
  1036                           
  1037                           
  1038                           ;psect for function _setup
  1039  00FB                     _setup:	
  1040                           
  1041                           ;door-lock-system.c: 321: BRGH = 1;
  1042                           
  1043                           ;incstack = 0
  1044                           ; Regs used in _setup: [wreg+status,2]
  1045  00FB  1683               	bsf	3,5	;RP0=1, select bank1
  1046  00FC  1303               	bcf	3,6	;RP1=0, select bank1
  1047  00FD  1518               	bsf	24,2	;volatile
  1048                           
  1049                           ;door-lock-system.c: 322: SPBRG = 12;
  1050  00FE  300C               	movlw	12
  1051  00FF  0099               	movwf	25	;volatile
  1052                           
  1053                           ;door-lock-system.c: 323: SYNC = 0;
  1054  0100  1218               	bcf	24,4	;volatile
  1055                           
  1056                           ;door-lock-system.c: 324: SPEN = 1;
  1057  0101  1283               	bcf	3,5	;RP0=0, select bank0
  1058  0102  1303               	bcf	3,6	;RP1=0, select bank0
  1059  0103  1798               	bsf	24,7	;volatile
  1060                           
  1061                           ;door-lock-system.c: 325: TXEN = 1;
  1062  0104  1683               	bsf	3,5	;RP0=1, select bank1
  1063  0105  1303               	bcf	3,6	;RP1=0, select bank1
  1064  0106  1698               	bsf	24,5	;volatile
  1065                           
  1066                           ;door-lock-system.c: 326: CREN = 1;
  1067  0107  1283               	bcf	3,5	;RP0=0, select bank0
  1068  0108  1303               	bcf	3,6	;RP1=0, select bank0
  1069  0109  1618               	bsf	24,4	;volatile
  1070                           
  1071                           ;door-lock-system.c: 328: TXIF = 0;
  1072  010A  120C               	bcf	12,4	;volatile
  1073                           
  1074                           ;door-lock-system.c: 329: RCIF = 0;
  1075  010B  128C               	bcf	12,5	;volatile
  1076                           
  1077                           ;door-lock-system.c: 331: RCIE = 1;
  1078  010C  1683               	bsf	3,5	;RP0=1, select bank1
  1079  010D  1303               	bcf	3,6	;RP1=0, select bank1
  1080  010E  168C               	bsf	12,5	;volatile
  1081                           
  1082                           ;door-lock-system.c: 332: PEIE = 1;
  1083  010F  170B               	bsf	11,6	;volatile
  1084                           
  1085                           ;door-lock-system.c: 333: GIE = 1;
  1086  0110  178B               	bsf	11,7	;volatile
  1087                           
  1088                           ;door-lock-system.c: 335: ADCON1 = 0x06;
  1089  0111  3006               	movlw	6
  1090  0112  009F               	movwf	31	;volatile
  1091                           
  1092                           ;door-lock-system.c: 337: TRISB = 0x00;
  1093  0113  0186               	clrf	6	;volatile
  1094                           
  1095                           ;door-lock-system.c: 338: TRISD = 0xFF;
  1096  0114  30FF               	movlw	255
  1097  0115  0088               	movwf	8	;volatile
  1098                           
  1099                           ;door-lock-system.c: 339: TRISC = 0x80;
  1100  0116  3080               	movlw	128
  1101  0117  0087               	movwf	7	;volatile
  1102                           
  1103                           ;door-lock-system.c: 340: PORTB = 0x00;
  1104  0118  1283               	bcf	3,5	;RP0=0, select bank0
  1105  0119  1303               	bcf	3,6	;RP1=0, select bank0
  1106  011A  0186               	clrf	6	;volatile
  1107  011B  0008               	return
  1108  011C                     __end_of_setup:	
  1109                           
  1110                           	psect	text2
  1111  0647                     __ptext2:	
  1112 ;; *************** function _setPass *****************
  1113 ;; Defined at:
  1114 ;;		line 191 in file "D:\From old laptop\Subjects\Uni\3rd Year M\2nd sem\Embedded Systems\Final\door-lock-system\door-lo
      +ck-system.c"
  1115 ;; Parameters:    Size  Location     Type
  1116 ;;		None
  1117 ;; Auto vars:     Size  Location     Type
  1118 ;;  i               2   10[COMMON] int 
  1119 ;;  keyData         1    9[COMMON] unsigned char 
  1120 ;; Return value:  Size  Location     Type
  1121 ;;		None               void
  1122 ;; Registers used:
  1123 ;;		wreg, fsr0l, fsr0h, status,2, status,0, btemp+1, pclath, cstack
  1124 ;; Tracked objects:
  1125 ;;		On entry : 0/0
  1126 ;;		On exit  : 0/0
  1127 ;;		Unchanged: 0/0
  1128 ;; Data sizes:     COMMON   BANK0   BANK1   BANK3   BANK2
  1129 ;;      Params:         0       0       0       0       0
  1130 ;;      Locals:         3       0       0       0       0
  1131 ;;      Temps:          2       0       0       0       0
  1132 ;;      Totals:         5       0       0       0       0
  1133 ;;Total ram usage:        5 bytes
  1134 ;; Hardware stack levels used:    1
  1135 ;; Hardware stack levels required when called:    2
  1136 ;; This function calls:
  1137 ;;		_dataCtrl
  1138 ;; This function is called by:
  1139 ;;		_main
  1140 ;; This function uses a non-reentrant model
  1141 ;;
  1142                           
  1143                           
  1144                           ;psect for function _setPass
  1145  0647                     _setPass:	
  1146                           
  1147                           ;door-lock-system.c: 192: int i = 0;
  1148                           
  1149                           ;incstack = 0
  1150                           ; Regs used in _setPass: [wreg-fsr0h+status,2+status,0+btemp+1+pclath+cstack]
  1151  0647  01FA               	clrf	setPass@i
  1152  0648  01FB               	clrf	setPass@i+1
  1153                           
  1154                           ;door-lock-system.c: 193: unsigned char keyData;
  1155                           ;door-lock-system.c: 195: setpass_flag = 1;
  1156  0649  1283               	bcf	3,5	;RP0=0, select bank0
  1157  064A  1303               	bcf	3,6	;RP1=0, select bank0
  1158  064B  14CE               	bsf	_setpass_flag/(0+8),_setpass_flag& (0+7)
  1159  064C                     l1538:	
  1160                           ;door-lock-system.c: 196: while (i < 8) {
  1161                           
  1162  064C  087B               	movf	setPass@i+1,w
  1163  064D  3A80               	xorlw	128
  1164  064E  00FF               	movwf	127
  1165  064F  3080               	movlw	128
  1166  0650  027F               	subwf	127,w
  1167  0651  1D03               	skipz
  1168  0652  2E55               	goto	u745
  1169  0653  3008               	movlw	8
  1170  0654  027A               	subwf	setPass@i,w
  1171  0655                     u745:	
  1172  0655  1803               	btfsc	3,0
  1173  0656  0008               	return
  1174                           
  1175                           ;door-lock-system.c: 197: if (RD4) {
  1176  0657  1283               	bcf	3,5	;RP0=0, select bank0
  1177  0658  1303               	bcf	3,6	;RP1=0, select bank0
  1178  0659  1E08               	btfss	8,4	;volatile
  1179  065A  2E4C               	goto	l1538
  1180                           
  1181                           ;door-lock-system.c: 198: _delay((unsigned long)((10)*(4000000/4000.0)));
  1182  065B  300D               	movlw	13
  1183  065C  00F8               	movwf	??_setPass+1
  1184  065D  30FB               	movlw	251
  1185  065E  00F7               	movwf	??_setPass
  1186  065F                     u947:	
  1187  065F  0BF7               	decfsz	??_setPass,f
  1188  0660  2E5F               	goto	u947
  1189  0661  0BF8               	decfsz	??_setPass+1,f
  1190  0662  2E5F               	goto	u947
  1191  0663  2E64               	nop2
  1192                           
  1193                           ;door-lock-system.c: 199: keyData = PORTD & 0x0F;
  1194  0664  1283               	bcf	3,5	;RP0=0, select bank0
  1195  0665  1303               	bcf	3,6	;RP1=0, select bank0
  1196  0666  0808               	movf	8,w	;volatile
  1197  0667  390F               	andlw	15
  1198  0668  00F7               	movwf	??_setPass
  1199  0669  0877               	movf	??_setPass,w
  1200  066A  00F9               	movwf	setPass@keyData
  1201                           
  1202                           ;door-lock-system.c: 201: switch (keyData) {
  1203  066B  2FA7               	goto	l1534
  1204  066C                     l1440:	
  1205                           ;door-lock-system.c: 202: case 0x0: correctPIN[i++] = 1; dataCtrl('1'); break;
  1206                           
  1207  066C  087A               	movf	setPass@i,w
  1208  066D  3E3D               	addlw	_correctPIN& (0+255)
  1209  066E  0084               	movwf	4
  1210  066F  1383               	bcf	3,7	;select IRP bank0
  1211  0670  0180               	clrf	0
  1212  0671  0A80               	incf	0,f
  1213  0672  3001               	movlw	1
  1214  0673  07FA               	addwf	setPass@i,f
  1215  0674  1803               	skipnc
  1216  0675  0AFB               	incf	setPass@i+1,f
  1217  0676  3000               	movlw	0
  1218  0677  07FB               	addwf	setPass@i+1,f
  1219  0678  3031               	movlw	49
  1220  0679  120A  118A  20D5  120A  118A  	fcall	_dataCtrl
  1221  067E  2FD9               	goto	l168
  1222  067F                     l1446:	
  1223                           ;door-lock-system.c: 203: case 0x1: correctPIN[i++] = 2; dataCtrl('2'); break;
  1224                           
  1225  067F  3002               	movlw	2
  1226  0680  00F7               	movwf	??_setPass
  1227  0681  087A               	movf	setPass@i,w
  1228  0682  3E3D               	addlw	_correctPIN& (0+255)
  1229  0683  0084               	movwf	4
  1230  0684  0877               	movf	??_setPass,w
  1231  0685  1383               	bcf	3,7	;select IRP bank0
  1232  0686  0080               	movwf	0
  1233  0687  3001               	movlw	1
  1234  0688  07FA               	addwf	setPass@i,f
  1235  0689  1803               	skipnc
  1236  068A  0AFB               	incf	setPass@i+1,f
  1237  068B  3000               	movlw	0
  1238  068C  07FB               	addwf	setPass@i+1,f
  1239  068D  3032               	movlw	50
  1240  068E  120A  118A  20D5  120A  118A  	fcall	_dataCtrl
  1241  0693  2FD9               	goto	l168
  1242  0694                     l1452:	
  1243                           ;door-lock-system.c: 204: case 0x2: correctPIN[i++] = 3; dataCtrl('3'); break;
  1244                           
  1245  0694  3003               	movlw	3
  1246  0695  00F7               	movwf	??_setPass
  1247  0696  087A               	movf	setPass@i,w
  1248  0697  3E3D               	addlw	_correctPIN& (0+255)
  1249  0698  0084               	movwf	4
  1250  0699  0877               	movf	??_setPass,w
  1251  069A  1383               	bcf	3,7	;select IRP bank0
  1252  069B  0080               	movwf	0
  1253  069C  3001               	movlw	1
  1254  069D  07FA               	addwf	setPass@i,f
  1255  069E  1803               	skipnc
  1256  069F  0AFB               	incf	setPass@i+1,f
  1257  06A0  3000               	movlw	0
  1258  06A1  07FB               	addwf	setPass@i+1,f
  1259  06A2  3033               	movlw	51
  1260  06A3  120A  118A  20D5  120A  118A  	fcall	_dataCtrl
  1261  06A8  2FD9               	goto	l168
  1262  06A9                     l1458:	
  1263                           ;door-lock-system.c: 205: case 0x3: correctPIN[i++] = 10; dataCtrl('A'); break;
  1264                           
  1265  06A9  300A               	movlw	10
  1266  06AA  00F7               	movwf	??_setPass
  1267  06AB  087A               	movf	setPass@i,w
  1268  06AC  3E3D               	addlw	_correctPIN& (0+255)
  1269  06AD  0084               	movwf	4
  1270  06AE  0877               	movf	??_setPass,w
  1271  06AF  1383               	bcf	3,7	;select IRP bank0
  1272  06B0  0080               	movwf	0
  1273  06B1  3001               	movlw	1
  1274  06B2  07FA               	addwf	setPass@i,f
  1275  06B3  1803               	skipnc
  1276  06B4  0AFB               	incf	setPass@i+1,f
  1277  06B5  3000               	movlw	0
  1278  06B6  07FB               	addwf	setPass@i+1,f
  1279  06B7  3041               	movlw	65
  1280  06B8  120A  118A  20D5  120A  118A  	fcall	_dataCtrl
  1281  06BD  2FD9               	goto	l168
  1282  06BE                     l1464:	
  1283                           ;door-lock-system.c: 207: case 0x4: correctPIN[i++] = 4; dataCtrl('4'); break;
  1284                           
  1285  06BE  3004               	movlw	4
  1286  06BF  00F7               	movwf	??_setPass
  1287  06C0  087A               	movf	setPass@i,w
  1288  06C1  3E3D               	addlw	_correctPIN& (0+255)
  1289  06C2  0084               	movwf	4
  1290  06C3  0877               	movf	??_setPass,w
  1291  06C4  1383               	bcf	3,7	;select IRP bank0
  1292  06C5  0080               	movwf	0
  1293  06C6  3001               	movlw	1
  1294  06C7  07FA               	addwf	setPass@i,f
  1295  06C8  1803               	skipnc
  1296  06C9  0AFB               	incf	setPass@i+1,f
  1297  06CA  3000               	movlw	0
  1298  06CB  07FB               	addwf	setPass@i+1,f
  1299  06CC  3034               	movlw	52
  1300  06CD  120A  118A  20D5  120A  118A  	fcall	_dataCtrl
  1301  06D2  2FD9               	goto	l168
  1302  06D3                     l1470:	
  1303                           ;door-lock-system.c: 208: case 0x5: correctPIN[i++] = 5; dataCtrl('5'); break;
  1304                           
  1305  06D3  3005               	movlw	5
  1306  06D4  00F7               	movwf	??_setPass
  1307  06D5  087A               	movf	setPass@i,w
  1308  06D6  3E3D               	addlw	_correctPIN& (0+255)
  1309  06D7  0084               	movwf	4
  1310  06D8  0877               	movf	??_setPass,w
  1311  06D9  1383               	bcf	3,7	;select IRP bank0
  1312  06DA  0080               	movwf	0
  1313  06DB  3001               	movlw	1
  1314  06DC  07FA               	addwf	setPass@i,f
  1315  06DD  1803               	skipnc
  1316  06DE  0AFB               	incf	setPass@i+1,f
  1317  06DF  3000               	movlw	0
  1318  06E0  07FB               	addwf	setPass@i+1,f
  1319  06E1  3035               	movlw	53
  1320  06E2  120A  118A  20D5  120A  118A  	fcall	_dataCtrl
  1321  06E7  2FD9               	goto	l168
  1322  06E8                     l1476:	
  1323                           ;door-lock-system.c: 209: case 0x6: correctPIN[i++] = 6; dataCtrl('6'); break;
  1324                           
  1325  06E8  3006               	movlw	6
  1326  06E9  00F7               	movwf	??_setPass
  1327  06EA  087A               	movf	setPass@i,w
  1328  06EB  3E3D               	addlw	_correctPIN& (0+255)
  1329  06EC  0084               	movwf	4
  1330  06ED  0877               	movf	??_setPass,w
  1331  06EE  1383               	bcf	3,7	;select IRP bank0
  1332  06EF  0080               	movwf	0
  1333  06F0  3001               	movlw	1
  1334  06F1  07FA               	addwf	setPass@i,f
  1335  06F2  1803               	skipnc
  1336  06F3  0AFB               	incf	setPass@i+1,f
  1337  06F4  3000               	movlw	0
  1338  06F5  07FB               	addwf	setPass@i+1,f
  1339  06F6  3036               	movlw	54
  1340  06F7  120A  118A  20D5  120A  118A  	fcall	_dataCtrl
  1341  06FC  2FD9               	goto	l168
  1342  06FD                     l1482:	
  1343                           ;door-lock-system.c: 210: case 0x7: correctPIN[i++] = 11; dataCtrl('B'); break;
  1344                           
  1345  06FD  300B               	movlw	11
  1346  06FE  00F7               	movwf	??_setPass
  1347  06FF  087A               	movf	setPass@i,w
  1348  0700  3E3D               	addlw	_correctPIN& (0+255)
  1349  0701  0084               	movwf	4
  1350  0702  0877               	movf	??_setPass,w
  1351  0703  1383               	bcf	3,7	;select IRP bank0
  1352  0704  0080               	movwf	0
  1353  0705  3001               	movlw	1
  1354  0706  07FA               	addwf	setPass@i,f
  1355  0707  1803               	skipnc
  1356  0708  0AFB               	incf	setPass@i+1,f
  1357  0709  3000               	movlw	0
  1358  070A  07FB               	addwf	setPass@i+1,f
  1359  070B  3042               	movlw	66
  1360  070C  120A  118A  20D5  120A  118A  	fcall	_dataCtrl
  1361  0711  2FD9               	goto	l168
  1362  0712                     l1488:	
  1363                           ;door-lock-system.c: 212: case 0x8: correctPIN[i++] = 7; dataCtrl('7'); break;
  1364                           
  1365  0712  3007               	movlw	7
  1366  0713  00F7               	movwf	??_setPass
  1367  0714  087A               	movf	setPass@i,w
  1368  0715  3E3D               	addlw	_correctPIN& (0+255)
  1369  0716  0084               	movwf	4
  1370  0717  0877               	movf	??_setPass,w
  1371  0718  1383               	bcf	3,7	;select IRP bank0
  1372  0719  0080               	movwf	0
  1373  071A  3001               	movlw	1
  1374  071B  07FA               	addwf	setPass@i,f
  1375  071C  1803               	skipnc
  1376  071D  0AFB               	incf	setPass@i+1,f
  1377  071E  3000               	movlw	0
  1378  071F  07FB               	addwf	setPass@i+1,f
  1379  0720  3037               	movlw	55
  1380  0721  120A  118A  20D5  120A  118A  	fcall	_dataCtrl
  1381  0726  2FD9               	goto	l168
  1382  0727                     l1494:	
  1383                           ;door-lock-system.c: 213: case 0x9: correctPIN[i++] = 8; dataCtrl('8'); break;
  1384                           
  1385  0727  3008               	movlw	8
  1386  0728  00F7               	movwf	??_setPass
  1387  0729  087A               	movf	setPass@i,w
  1388  072A  3E3D               	addlw	_correctPIN& (0+255)
  1389  072B  0084               	movwf	4
  1390  072C  0877               	movf	??_setPass,w
  1391  072D  1383               	bcf	3,7	;select IRP bank0
  1392  072E  0080               	movwf	0
  1393  072F  3001               	movlw	1
  1394  0730  07FA               	addwf	setPass@i,f
  1395  0731  1803               	skipnc
  1396  0732  0AFB               	incf	setPass@i+1,f
  1397  0733  3000               	movlw	0
  1398  0734  07FB               	addwf	setPass@i+1,f
  1399  0735  3038               	movlw	56
  1400  0736  120A  118A  20D5  120A  118A  	fcall	_dataCtrl
  1401  073B  2FD9               	goto	l168
  1402  073C                     l1500:	
  1403                           ;door-lock-system.c: 214: case 0xA: correctPIN[i++] = 9; dataCtrl('9'); break;
  1404                           
  1405  073C  3009               	movlw	9
  1406  073D  00F7               	movwf	??_setPass
  1407  073E  087A               	movf	setPass@i,w
  1408  073F  3E3D               	addlw	_correctPIN& (0+255)
  1409  0740  0084               	movwf	4
  1410  0741  0877               	movf	??_setPass,w
  1411  0742  1383               	bcf	3,7	;select IRP bank0
  1412  0743  0080               	movwf	0
  1413  0744  3001               	movlw	1
  1414  0745  07FA               	addwf	setPass@i,f
  1415  0746  1803               	skipnc
  1416  0747  0AFB               	incf	setPass@i+1,f
  1417  0748  3000               	movlw	0
  1418  0749  07FB               	addwf	setPass@i+1,f
  1419  074A  3039               	movlw	57
  1420  074B  120A  118A  20D5  120A  118A  	fcall	_dataCtrl
  1421  0750  2FD9               	goto	l168
  1422  0751                     l1506:	
  1423                           ;door-lock-system.c: 215: case 0xB: correctPIN[i++] = 12; dataCtrl('C'); break;
  1424                           
  1425  0751  300C               	movlw	12
  1426  0752  00F7               	movwf	??_setPass
  1427  0753  087A               	movf	setPass@i,w
  1428  0754  3E3D               	addlw	_correctPIN& (0+255)
  1429  0755  0084               	movwf	4
  1430  0756  0877               	movf	??_setPass,w
  1431  0757  1383               	bcf	3,7	;select IRP bank0
  1432  0758  0080               	movwf	0
  1433  0759  3001               	movlw	1
  1434  075A  07FA               	addwf	setPass@i,f
  1435  075B  1803               	skipnc
  1436  075C  0AFB               	incf	setPass@i+1,f
  1437  075D  3000               	movlw	0
  1438  075E  07FB               	addwf	setPass@i+1,f
  1439  075F  3043               	movlw	67
  1440  0760  120A  118A  20D5  120A  118A  	fcall	_dataCtrl
  1441  0765  2FD9               	goto	l168
  1442  0766                     l1512:	
  1443                           ;door-lock-system.c: 217: case 0xC: correctPIN[i++] = 14; dataCtrl('*'); break;
  1444                           
  1445  0766  300E               	movlw	14
  1446  0767  00F7               	movwf	??_setPass
  1447  0768  087A               	movf	setPass@i,w
  1448  0769  3E3D               	addlw	_correctPIN& (0+255)
  1449  076A  0084               	movwf	4
  1450  076B  0877               	movf	??_setPass,w
  1451  076C  1383               	bcf	3,7	;select IRP bank0
  1452  076D  0080               	movwf	0
  1453  076E  3001               	movlw	1
  1454  076F  07FA               	addwf	setPass@i,f
  1455  0770  1803               	skipnc
  1456  0771  0AFB               	incf	setPass@i+1,f
  1457  0772  3000               	movlw	0
  1458  0773  07FB               	addwf	setPass@i+1,f
  1459  0774  302A               	movlw	42
  1460  0775  120A  118A  20D5  120A  118A  	fcall	_dataCtrl
  1461  077A  2FD9               	goto	l168
  1462  077B                     l1518:	
  1463                           ;door-lock-system.c: 218: case 0xD: correctPIN[i++] = 0; dataCtrl('0'); break;
  1464                           
  1465  077B  087A               	movf	setPass@i,w
  1466  077C  3E3D               	addlw	_correctPIN& (0+255)
  1467  077D  0084               	movwf	4
  1468  077E  1383               	bcf	3,7	;select IRP bank0
  1469  077F  0180               	clrf	0
  1470  0780  3001               	movlw	1
  1471  0781  07FA               	addwf	setPass@i,f
  1472  0782  1803               	skipnc
  1473  0783  0AFB               	incf	setPass@i+1,f
  1474  0784  3000               	movlw	0
  1475  0785  07FB               	addwf	setPass@i+1,f
  1476  0786  3030               	movlw	48
  1477  0787  120A  118A  20D5  120A  118A  	fcall	_dataCtrl
  1478  078C  2FD9               	goto	l168
  1479  078D                     l1524:	
  1480                           ;door-lock-system.c: 219: case 0xE: i = 8; break;
  1481                           
  1482  078D  3008               	movlw	8
  1483  078E  00FA               	movwf	setPass@i
  1484  078F  3000               	movlw	0
  1485  0790  00FB               	movwf	setPass@i+1
  1486  0791  2FD9               	goto	l168
  1487  0792                     l1526:	
  1488                           ;door-lock-system.c: 220: case 0xF: correctPIN[i++] = 13; dataCtrl('D'); break;
  1489                           
  1490  0792  300D               	movlw	13
  1491  0793  00F7               	movwf	??_setPass
  1492  0794  087A               	movf	setPass@i,w
  1493  0795  3E3D               	addlw	_correctPIN& (0+255)
  1494  0796  0084               	movwf	4
  1495  0797  0877               	movf	??_setPass,w
  1496  0798  1383               	bcf	3,7	;select IRP bank0
  1497  0799  0080               	movwf	0
  1498  079A  3001               	movlw	1
  1499  079B  07FA               	addwf	setPass@i,f
  1500  079C  1803               	skipnc
  1501  079D  0AFB               	incf	setPass@i+1,f
  1502  079E  3000               	movlw	0
  1503  079F  07FB               	addwf	setPass@i+1,f
  1504  07A0  3044               	movlw	68
  1505  07A1  120A  118A  20D5  120A  118A  	fcall	_dataCtrl
  1506                           
  1507                           ;door-lock-system.c: 223: }
  1508                           
  1509                           ;door-lock-system.c: 222: default: break;
  1510  07A6  2FD9               	goto	l168
  1511  07A7                     l1534:	
  1512  07A7  0879               	movf	setPass@keyData,w
  1513                           
  1514                           ; Switch size 1, requested type "space"
  1515                           ; Number of cases is 16, Range of values is 0 to 15
  1516                           ; switch strategies available:
  1517                           ; Name         Instructions Cycles
  1518                           ; simple_byte           49    25 (average)
  1519                           ; direct_byte           56     8 (fixed)
  1520                           ; jumptable            260     6 (fixed)
  1521                           ;	Chosen strategy is simple_byte
  1522  07A8  3A00               	xorlw	0	; case 0
  1523  07A9  1903               	skipnz
  1524  07AA  2E6C               	goto	l1440
  1525  07AB  3A01               	xorlw	1	; case 1
  1526  07AC  1903               	skipnz
  1527  07AD  2E7F               	goto	l1446
  1528  07AE  3A03               	xorlw	3	; case 2
  1529  07AF  1903               	skipnz
  1530  07B0  2E94               	goto	l1452
  1531  07B1  3A01               	xorlw	1	; case 3
  1532  07B2  1903               	skipnz
  1533  07B3  2EA9               	goto	l1458
  1534  07B4  3A07               	xorlw	7	; case 4
  1535  07B5  1903               	skipnz
  1536  07B6  2EBE               	goto	l1464
  1537  07B7  3A01               	xorlw	1	; case 5
  1538  07B8  1903               	skipnz
  1539  07B9  2ED3               	goto	l1470
  1540  07BA  3A03               	xorlw	3	; case 6
  1541  07BB  1903               	skipnz
  1542  07BC  2EE8               	goto	l1476
  1543  07BD  3A01               	xorlw	1	; case 7
  1544  07BE  1903               	skipnz
  1545  07BF  2EFD               	goto	l1482
  1546  07C0  3A0F               	xorlw	15	; case 8
  1547  07C1  1903               	skipnz
  1548  07C2  2F12               	goto	l1488
  1549  07C3  3A01               	xorlw	1	; case 9
  1550  07C4  1903               	skipnz
  1551  07C5  2F27               	goto	l1494
  1552  07C6  3A03               	xorlw	3	; case 10
  1553  07C7  1903               	skipnz
  1554  07C8  2F3C               	goto	l1500
  1555  07C9  3A01               	xorlw	1	; case 11
  1556  07CA  1903               	skipnz
  1557  07CB  2F51               	goto	l1506
  1558  07CC  3A07               	xorlw	7	; case 12
  1559  07CD  1903               	skipnz
  1560  07CE  2F66               	goto	l1512
  1561  07CF  3A01               	xorlw	1	; case 13
  1562  07D0  1903               	skipnz
  1563  07D1  2F7B               	goto	l1518
  1564  07D2  3A03               	xorlw	3	; case 14
  1565  07D3  1903               	skipnz
  1566  07D4  2F8D               	goto	l1524
  1567  07D5  3A01               	xorlw	1	; case 15
  1568  07D6  1903               	skipnz
  1569  07D7  2F92               	goto	l1526
  1570  07D8  2FD9               	goto	l168
  1571  07D9                     l168:	
  1572                           ;door-lock-system.c: 224: while (RD4);
  1573                           
  1574  07D9  1283               	bcf	3,5	;RP0=0, select bank0
  1575  07DA  1303               	bcf	3,6	;RP1=0, select bank0
  1576  07DB  1A08               	btfsc	8,4	;volatile
  1577  07DC  2FD9               	goto	l168
  1578                           
  1579                           ;door-lock-system.c: 225: _delay((unsigned long)((50)*(4000000/4000.0)));
  1580  07DD  3041               	movlw	65
  1581  07DE  00F8               	movwf	??_setPass+1
  1582  07DF  30EE               	movlw	238
  1583  07E0  00F7               	movwf	??_setPass
  1584  07E1                     u957:	
  1585  07E1  0BF7               	decfsz	??_setPass,f
  1586  07E2  2FE1               	goto	u957
  1587  07E3  0BF8               	decfsz	??_setPass+1,f
  1588  07E4  2FE1               	goto	u957
  1589  07E5  0000               	nop
  1590  07E6  2E4C               	goto	l1538
  1591  07E7                     __end_of_setPass:	
  1592                           
  1593                           	psect	text3
  1594  01B6                     __ptext3:	
  1595 ;; *************** function _initialize *****************
  1596 ;; Defined at:
  1597 ;;		line 54 in file "D:\From old laptop\Subjects\Uni\3rd Year M\2nd sem\Embedded Systems\Final\door-lock-system\door-loc
      +k-system.c"
  1598 ;; Parameters:    Size  Location     Type
  1599 ;;		None
  1600 ;; Auto vars:     Size  Location     Type
  1601 ;;		None
  1602 ;; Return value:  Size  Location     Type
  1603 ;;		None               void
  1604 ;; Registers used:
  1605 ;;		wreg, status,2, status,0, pclath, cstack
  1606 ;; Tracked objects:
  1607 ;;		On entry : 0/0
  1608 ;;		On exit  : 0/0
  1609 ;;		Unchanged: 0/0
  1610 ;; Data sizes:     COMMON   BANK0   BANK1   BANK3   BANK2
  1611 ;;      Params:         0       0       0       0       0
  1612 ;;      Locals:         0       0       0       0       0
  1613 ;;      Temps:          0       3       0       0       0
  1614 ;;      Totals:         0       3       0       0       0
  1615 ;;Total ram usage:        3 bytes
  1616 ;; Hardware stack levels used:    1
  1617 ;; Hardware stack levels required when called:    2
  1618 ;; This function calls:
  1619 ;;		_setServoPosition
  1620 ;; This function is called by:
  1621 ;;		_main
  1622 ;; This function uses a non-reentrant model
  1623 ;;
  1624                           
  1625                           
  1626                           ;psect for function _initialize
  1627  01B6                     _initialize:	
  1628                           
  1629                           ;door-lock-system.c: 56: TRISC2 = 0;
  1630                           
  1631                           ;incstack = 0
  1632                           ; Regs used in _initialize: [wreg+status,2+status,0+pclath+cstack]
  1633  01B6  1683               	bsf	3,5	;RP0=1, select bank1
  1634  01B7  1303               	bcf	3,6	;RP1=0, select bank1
  1635  01B8  1107               	bcf	7,2	;volatile
  1636                           
  1637                           ;door-lock-system.c: 59: TRISCbits.TRISC4 = 0;
  1638  01B9  1207               	bcf	7,4	;volatile
  1639                           
  1640                           ;door-lock-system.c: 60: TRISCbits.TRISC5 = 0;
  1641  01BA  1287               	bcf	7,5	;volatile
  1642                           
  1643                           ;door-lock-system.c: 61: TRISCbits.TRISC6 = 0;
  1644  01BB  1307               	bcf	7,6	;volatile
  1645                           
  1646                           ;door-lock-system.c: 64: TRISDbits.TRISD0 = 1;
  1647  01BC  1408               	bsf	8,0	;volatile
  1648                           
  1649                           ;door-lock-system.c: 65: TRISDbits.TRISD1 = 1;
  1650  01BD  1488               	bsf	8,1	;volatile
  1651                           
  1652                           ;door-lock-system.c: 66: TRISDbits.TRISD2 = 1;
  1653  01BE  1508               	bsf	8,2	;volatile
  1654                           
  1655                           ;door-lock-system.c: 69: PORTCbits.RC4 = 0;
  1656  01BF  1283               	bcf	3,5	;RP0=0, select bank0
  1657  01C0  1303               	bcf	3,6	;RP1=0, select bank0
  1658  01C1  1207               	bcf	7,4	;volatile
  1659                           
  1660                           ;door-lock-system.c: 70: PORTCbits.RC5 = 0;
  1661  01C2  1287               	bcf	7,5	;volatile
  1662                           
  1663                           ;door-lock-system.c: 71: PORTCbits.RC6 = 0;
  1664  01C3  1307               	bcf	7,6	;volatile
  1665                           
  1666                           ;door-lock-system.c: 74: PORTCbits.RC4 = 1;
  1667  01C4  1607               	bsf	7,4	;volatile
  1668                           
  1669                           ;door-lock-system.c: 75: PORTCbits.RC5 = 1;
  1670  01C5  1687               	bsf	7,5	;volatile
  1671                           
  1672                           ;door-lock-system.c: 76: PORTCbits.RC6 = 1;
  1673  01C6  1707               	bsf	7,6	;volatile
  1674                           
  1675                           ;door-lock-system.c: 77: _delay((unsigned long)((300)*(4000000/4000.0)));
  1676  01C7  3002               	movlw	2
  1677  01C8  00A2               	movwf	??_initialize+2
  1678  01C9  3086               	movlw	134
  1679  01CA  00A1               	movwf	??_initialize+1
  1680  01CB  3099               	movlw	153
  1681  01CC  00A0               	movwf	??_initialize
  1682  01CD                     u967:	
  1683  01CD  0BA0               	decfsz	??_initialize,f
  1684  01CE  29CD               	goto	u967
  1685  01CF  0BA1               	decfsz	??_initialize+1,f
  1686  01D0  29CD               	goto	u967
  1687  01D1  0BA2               	decfsz	??_initialize+2,f
  1688  01D2  29CD               	goto	u967
  1689                           
  1690                           ;door-lock-system.c: 78: PORTCbits.RC4 = 0;
  1691  01D3  1283               	bcf	3,5	;RP0=0, select bank0
  1692  01D4  1303               	bcf	3,6	;RP1=0, select bank0
  1693  01D5  1207               	bcf	7,4	;volatile
  1694                           
  1695                           ;door-lock-system.c: 79: PORTCbits.RC5 = 0;
  1696  01D6  1287               	bcf	7,5	;volatile
  1697                           
  1698                           ;door-lock-system.c: 80: PORTCbits.RC6 = 0;
  1699  01D7  1307               	bcf	7,6	;volatile
  1700                           
  1701                           ;door-lock-system.c: 81: _delay((unsigned long)((300)*(4000000/4000.0)));
  1702  01D8  3002               	movlw	2
  1703  01D9  00A2               	movwf	??_initialize+2
  1704  01DA  3086               	movlw	134
  1705  01DB  00A1               	movwf	??_initialize+1
  1706  01DC  3099               	movlw	153
  1707  01DD  00A0               	movwf	??_initialize
  1708  01DE                     u977:	
  1709  01DE  0BA0               	decfsz	??_initialize,f
  1710  01DF  29DE               	goto	u977
  1711  01E0  0BA1               	decfsz	??_initialize+1,f
  1712  01E1  29DE               	goto	u977
  1713  01E2  0BA2               	decfsz	??_initialize+2,f
  1714  01E3  29DE               	goto	u977
  1715                           
  1716                           ;door-lock-system.c: 84: PR2 = 199;
  1717  01E4  30C7               	movlw	199
  1718  01E5  1683               	bsf	3,5	;RP0=1, select bank1
  1719  01E6  1303               	bcf	3,6	;RP1=0, select bank1
  1720  01E7  0092               	movwf	18	;volatile
  1721                           
  1722                           ;door-lock-system.c: 89: CCP1CON = 0x0C;
  1723  01E8  300C               	movlw	12
  1724  01E9  1283               	bcf	3,5	;RP0=0, select bank0
  1725  01EA  1303               	bcf	3,6	;RP1=0, select bank0
  1726  01EB  0097               	movwf	23	;volatile
  1727                           
  1728                           ;door-lock-system.c: 92: T2CON = 0x06;
  1729  01EC  3006               	movlw	6
  1730  01ED  0092               	movwf	18	;volatile
  1731                           
  1732                           ;door-lock-system.c: 95: _delay((unsigned long)((500)*(4000000/4000.0)));
  1733  01EE  3003               	movlw	3
  1734  01EF  00A2               	movwf	??_initialize+2
  1735  01F0  308A               	movlw	138
  1736  01F1  00A1               	movwf	??_initialize+1
  1737  01F2  3056               	movlw	86
  1738  01F3  00A0               	movwf	??_initialize
  1739  01F4                     u987:	
  1740  01F4  0BA0               	decfsz	??_initialize,f
  1741  01F5  29F4               	goto	u987
  1742  01F6  0BA1               	decfsz	??_initialize+1,f
  1743  01F7  29F4               	goto	u987
  1744  01F8  0BA2               	decfsz	??_initialize+2,f
  1745  01F9  29F4               	goto	u987
  1746  01FA  29FB               	nop2
  1747                           
  1748                           ;door-lock-system.c: 96: setServoPosition(138);
  1749  01FB  308A               	movlw	138
  1750  01FC  120A  118A  2200   	fcall	_setServoPosition
  1751  01FF  0008               	return
  1752  0200                     __end_of_initialize:	
  1753                           
  1754                           	psect	text4
  1755  03B3                     __ptext4:	
  1756 ;; *************** function _enterPass *****************
  1757 ;; Defined at:
  1758 ;;		line 291 in file "D:\From old laptop\Subjects\Uni\3rd Year M\2nd sem\Embedded Systems\Final\door-lock-system\door-lo
      +ck-system.c"
  1759 ;; Parameters:    Size  Location     Type
  1760 ;;		None
  1761 ;; Auto vars:     Size  Location     Type
  1762 ;;  j               2   16[BANK0 ] int 
  1763 ;;  keyData         1   15[BANK0 ] unsigned char 
  1764 ;; Return value:  Size  Location     Type
  1765 ;;		None               void
  1766 ;; Registers used:
  1767 ;;		wreg, fsr0l, fsr0h, status,2, status,0, btemp+1, pclath, cstack
  1768 ;; Tracked objects:
  1769 ;;		On entry : 0/0
  1770 ;;		On exit  : 0/0
  1771 ;;		Unchanged: 0/0
  1772 ;; Data sizes:     COMMON   BANK0   BANK1   BANK3   BANK2
  1773 ;;      Params:         0       0       0       0       0
  1774 ;;      Locals:         0       3       0       0       0
  1775 ;;      Temps:          0       2       0       0       0
  1776 ;;      Totals:         0       5       0       0       0
  1777 ;;Total ram usage:        5 bytes
  1778 ;; Hardware stack levels used:    1
  1779 ;; Hardware stack levels required when called:    5
  1780 ;; This function calls:
  1781 ;;		_dataCtrl
  1782 ;;		_verifyPIN
  1783 ;; This function is called by:
  1784 ;;		_main
  1785 ;; This function uses a non-reentrant model
  1786 ;;
  1787                           
  1788                           
  1789                           ;psect for function _enterPass
  1790  03B3                     _enterPass:	
  1791                           
  1792                           ;door-lock-system.c: 292: int j = 0;
  1793                           
  1794                           ;incstack = 0
  1795                           ; Regs used in _enterPass: [wreg-fsr0h+status,2+status,0+btemp+1+pclath+cstack]
  1796  03B3  1283               	bcf	3,5	;RP0=0, select bank0
  1797  03B4  1303               	bcf	3,6	;RP1=0, select bank0
  1798  03B5  01B0               	clrf	enterPass@j
  1799  03B6  01B1               	clrf	enterPass@j+1
  1800  03B7                     l1614:	
  1801                           ;door-lock-system.c: 293: unsigned char keyData;
  1802                           ;door-lock-system.c: 294: while (j < 8) {
  1803                           
  1804  03B7  1283               	bcf	3,5	;RP0=0, select bank0
  1805  03B8  1303               	bcf	3,6	;RP1=0, select bank0
  1806  03B9  0831               	movf	enterPass@j+1,w
  1807  03BA  3A80               	xorlw	128
  1808  03BB  00FF               	movwf	127
  1809  03BC  3080               	movlw	128
  1810  03BD  027F               	subwf	127,w
  1811  03BE  1D03               	skipz
  1812  03BF  2BC2               	goto	u775
  1813  03C0  3008               	movlw	8
  1814  03C1  0230               	subwf	enterPass@j,w
  1815  03C2                     u775:	
  1816  03C2  1803               	btfsc	3,0
  1817  03C3  2CF0               	goto	l1616
  1818                           
  1819                           ;door-lock-system.c: 295: if (RD4){
  1820  03C4  1283               	bcf	3,5	;RP0=0, select bank0
  1821  03C5  1303               	bcf	3,6	;RP1=0, select bank0
  1822  03C6  1E08               	btfss	8,4	;volatile
  1823  03C7  2BB7               	goto	l1614
  1824                           
  1825                           ;door-lock-system.c: 296: _delay((unsigned long)((10)*(4000000/4000.0)));
  1826  03C8  300D               	movlw	13
  1827  03C9  00AE               	movwf	??_enterPass+1
  1828  03CA  30FB               	movlw	251
  1829  03CB  00AD               	movwf	??_enterPass
  1830  03CC                     u997:	
  1831  03CC  0BAD               	decfsz	??_enterPass,f
  1832  03CD  2BCC               	goto	u997
  1833  03CE  0BAE               	decfsz	??_enterPass+1,f
  1834  03CF  2BCC               	goto	u997
  1835  03D0  2BD1               	nop2
  1836                           
  1837                           ;door-lock-system.c: 297: keyData = PORTD & 0x0F;
  1838  03D1  1283               	bcf	3,5	;RP0=0, select bank0
  1839  03D2  1303               	bcf	3,6	;RP1=0, select bank0
  1840  03D3  0808               	movf	8,w	;volatile
  1841  03D4  390F               	andlw	15
  1842  03D5  00AD               	movwf	??_enterPass
  1843  03D6  082D               	movf	??_enterPass,w
  1844  03D7  00AF               	movwf	enterPass@keyData
  1845                           
  1846                           ;door-lock-system.c: 299: switch (keyData) {
  1847  03D8  2CBF               	goto	l1610
  1848  03D9                     l1546:	
  1849                           ;door-lock-system.c: 300: case 0x0: PIN[j++] = 1; dataCtrl('*'); break;
  1850                           
  1851  03D9  0830               	movf	enterPass@j,w
  1852  03DA  3E35               	addlw	_PIN& (0+255)
  1853  03DB  0084               	movwf	4
  1854  03DC  1383               	bcf	3,7	;select IRP bank0
  1855  03DD  0180               	clrf	0
  1856  03DE  0A80               	incf	0,f
  1857  03DF  3001               	movlw	1
  1858  03E0  07B0               	addwf	enterPass@j,f
  1859  03E1  1803               	skipnc
  1860  03E2  0AB1               	incf	enterPass@j+1,f
  1861  03E3  3000               	movlw	0
  1862  03E4  07B1               	addwf	enterPass@j+1,f
  1863  03E5  302A               	movlw	42
  1864  03E6  120A  118A  20D5  120A  118A  	fcall	_dataCtrl
  1865  03EB  2CE2               	goto	l214
  1866  03EC                     l1552:	
  1867                           ;door-lock-system.c: 301: case 0x1: PIN[j++] = 2; dataCtrl('*'); break;
  1868                           
  1869  03EC  3002               	movlw	2
  1870  03ED  1283               	bcf	3,5	;RP0=0, select bank0
  1871  03EE  1303               	bcf	3,6	;RP1=0, select bank0
  1872  03EF  00AD               	movwf	??_enterPass
  1873  03F0  0830               	movf	enterPass@j,w
  1874  03F1  3E35               	addlw	_PIN& (0+255)
  1875  03F2  0084               	movwf	4
  1876  03F3  082D               	movf	??_enterPass,w
  1877  03F4  1383               	bcf	3,7	;select IRP bank0
  1878  03F5  0080               	movwf	0
  1879  03F6  3001               	movlw	1
  1880  03F7  07B0               	addwf	enterPass@j,f
  1881  03F8  1803               	skipnc
  1882  03F9  0AB1               	incf	enterPass@j+1,f
  1883  03FA  3000               	movlw	0
  1884  03FB  07B1               	addwf	enterPass@j+1,f
  1885  03FC  302A               	movlw	42
  1886  03FD  120A  118A  20D5  120A  118A  	fcall	_dataCtrl
  1887  0402  2CE2               	goto	l214
  1888  0403                     l1558:	
  1889                           ;door-lock-system.c: 302: case 0x2: PIN[j++] = 3; dataCtrl('*'); break;
  1890                           
  1891  0403  3003               	movlw	3
  1892  0404  1283               	bcf	3,5	;RP0=0, select bank0
  1893  0405  1303               	bcf	3,6	;RP1=0, select bank0
  1894  0406  00AD               	movwf	??_enterPass
  1895  0407  0830               	movf	enterPass@j,w
  1896  0408  3E35               	addlw	_PIN& (0+255)
  1897  0409  0084               	movwf	4
  1898  040A  082D               	movf	??_enterPass,w
  1899  040B  1383               	bcf	3,7	;select IRP bank0
  1900  040C  0080               	movwf	0
  1901  040D  3001               	movlw	1
  1902  040E  07B0               	addwf	enterPass@j,f
  1903  040F  1803               	skipnc
  1904  0410  0AB1               	incf	enterPass@j+1,f
  1905  0411  3000               	movlw	0
  1906  0412  07B1               	addwf	enterPass@j+1,f
  1907  0413  302A               	movlw	42
  1908  0414  120A  118A  20D5  120A  118A  	fcall	_dataCtrl
  1909  0419  2CE2               	goto	l214
  1910  041A                     l1564:	
  1911                           ;door-lock-system.c: 303: case 0x4: PIN[j++] = 4; dataCtrl('*'); break;
  1912                           
  1913  041A  3004               	movlw	4
  1914  041B  1283               	bcf	3,5	;RP0=0, select bank0
  1915  041C  1303               	bcf	3,6	;RP1=0, select bank0
  1916  041D  00AD               	movwf	??_enterPass
  1917  041E  0830               	movf	enterPass@j,w
  1918  041F  3E35               	addlw	_PIN& (0+255)
  1919  0420  0084               	movwf	4
  1920  0421  082D               	movf	??_enterPass,w
  1921  0422  1383               	bcf	3,7	;select IRP bank0
  1922  0423  0080               	movwf	0
  1923  0424  3001               	movlw	1
  1924  0425  07B0               	addwf	enterPass@j,f
  1925  0426  1803               	skipnc
  1926  0427  0AB1               	incf	enterPass@j+1,f
  1927  0428  3000               	movlw	0
  1928  0429  07B1               	addwf	enterPass@j+1,f
  1929  042A  302A               	movlw	42
  1930  042B  120A  118A  20D5  120A  118A  	fcall	_dataCtrl
  1931  0430  2CE2               	goto	l214
  1932  0431                     l1570:	
  1933                           ;door-lock-system.c: 304: case 0x5: PIN[j++] = 5; dataCtrl('*'); break;
  1934                           
  1935  0431  3005               	movlw	5
  1936  0432  1283               	bcf	3,5	;RP0=0, select bank0
  1937  0433  1303               	bcf	3,6	;RP1=0, select bank0
  1938  0434  00AD               	movwf	??_enterPass
  1939  0435  0830               	movf	enterPass@j,w
  1940  0436  3E35               	addlw	_PIN& (0+255)
  1941  0437  0084               	movwf	4
  1942  0438  082D               	movf	??_enterPass,w
  1943  0439  1383               	bcf	3,7	;select IRP bank0
  1944  043A  0080               	movwf	0
  1945  043B  3001               	movlw	1
  1946  043C  07B0               	addwf	enterPass@j,f
  1947  043D  1803               	skipnc
  1948  043E  0AB1               	incf	enterPass@j+1,f
  1949  043F  3000               	movlw	0
  1950  0440  07B1               	addwf	enterPass@j+1,f
  1951  0441  302A               	movlw	42
  1952  0442  120A  118A  20D5  120A  118A  	fcall	_dataCtrl
  1953  0447  2CE2               	goto	l214
  1954  0448                     l1576:	
  1955                           ;door-lock-system.c: 305: case 0x6: PIN[j++] = 6; dataCtrl('*'); break;
  1956                           
  1957  0448  3006               	movlw	6
  1958  0449  1283               	bcf	3,5	;RP0=0, select bank0
  1959  044A  1303               	bcf	3,6	;RP1=0, select bank0
  1960  044B  00AD               	movwf	??_enterPass
  1961  044C  0830               	movf	enterPass@j,w
  1962  044D  3E35               	addlw	_PIN& (0+255)
  1963  044E  0084               	movwf	4
  1964  044F  082D               	movf	??_enterPass,w
  1965  0450  1383               	bcf	3,7	;select IRP bank0
  1966  0451  0080               	movwf	0
  1967  0452  3001               	movlw	1
  1968  0453  07B0               	addwf	enterPass@j,f
  1969  0454  1803               	skipnc
  1970  0455  0AB1               	incf	enterPass@j+1,f
  1971  0456  3000               	movlw	0
  1972  0457  07B1               	addwf	enterPass@j+1,f
  1973  0458  302A               	movlw	42
  1974  0459  120A  118A  20D5  120A  118A  	fcall	_dataCtrl
  1975  045E  2CE2               	goto	l214
  1976  045F                     l1582:	
  1977                           ;door-lock-system.c: 306: case 0x8: PIN[j++] = 7; dataCtrl('*'); break;
  1978                           
  1979  045F  3007               	movlw	7
  1980  0460  1283               	bcf	3,5	;RP0=0, select bank0
  1981  0461  1303               	bcf	3,6	;RP1=0, select bank0
  1982  0462  00AD               	movwf	??_enterPass
  1983  0463  0830               	movf	enterPass@j,w
  1984  0464  3E35               	addlw	_PIN& (0+255)
  1985  0465  0084               	movwf	4
  1986  0466  082D               	movf	??_enterPass,w
  1987  0467  1383               	bcf	3,7	;select IRP bank0
  1988  0468  0080               	movwf	0
  1989  0469  3001               	movlw	1
  1990  046A  07B0               	addwf	enterPass@j,f
  1991  046B  1803               	skipnc
  1992  046C  0AB1               	incf	enterPass@j+1,f
  1993  046D  3000               	movlw	0
  1994  046E  07B1               	addwf	enterPass@j+1,f
  1995  046F  302A               	movlw	42
  1996  0470  120A  118A  20D5  120A  118A  	fcall	_dataCtrl
  1997  0475  2CE2               	goto	l214
  1998  0476                     l1588:	
  1999                           ;door-lock-system.c: 307: case 0x9: PIN[j++] = 8; dataCtrl('*'); break;
  2000                           
  2001  0476  3008               	movlw	8
  2002  0477  1283               	bcf	3,5	;RP0=0, select bank0
  2003  0478  1303               	bcf	3,6	;RP1=0, select bank0
  2004  0479  00AD               	movwf	??_enterPass
  2005  047A  0830               	movf	enterPass@j,w
  2006  047B  3E35               	addlw	_PIN& (0+255)
  2007  047C  0084               	movwf	4
  2008  047D  082D               	movf	??_enterPass,w
  2009  047E  1383               	bcf	3,7	;select IRP bank0
  2010  047F  0080               	movwf	0
  2011  0480  3001               	movlw	1
  2012  0481  07B0               	addwf	enterPass@j,f
  2013  0482  1803               	skipnc
  2014  0483  0AB1               	incf	enterPass@j+1,f
  2015  0484  3000               	movlw	0
  2016  0485  07B1               	addwf	enterPass@j+1,f
  2017  0486  302A               	movlw	42
  2018  0487  120A  118A  20D5  120A  118A  	fcall	_dataCtrl
  2019  048C  2CE2               	goto	l214
  2020  048D                     l1594:	
  2021                           ;door-lock-system.c: 308: case 0xA: PIN[j++] = 9; dataCtrl('*'); break;
  2022                           
  2023  048D  3009               	movlw	9
  2024  048E  1283               	bcf	3,5	;RP0=0, select bank0
  2025  048F  1303               	bcf	3,6	;RP1=0, select bank0
  2026  0490  00AD               	movwf	??_enterPass
  2027  0491  0830               	movf	enterPass@j,w
  2028  0492  3E35               	addlw	_PIN& (0+255)
  2029  0493  0084               	movwf	4
  2030  0494  082D               	movf	??_enterPass,w
  2031  0495  1383               	bcf	3,7	;select IRP bank0
  2032  0496  0080               	movwf	0
  2033  0497  3001               	movlw	1
  2034  0498  07B0               	addwf	enterPass@j,f
  2035  0499  1803               	skipnc
  2036  049A  0AB1               	incf	enterPass@j+1,f
  2037  049B  3000               	movlw	0
  2038  049C  07B1               	addwf	enterPass@j+1,f
  2039  049D  302A               	movlw	42
  2040  049E  120A  118A  20D5  120A  118A  	fcall	_dataCtrl
  2041  04A3  2CE2               	goto	l214
  2042  04A4                     l1600:	
  2043                           ;door-lock-system.c: 309: case 0xD: PIN[j++] = 0; dataCtrl('*'); break;
  2044                           
  2045  04A4  1283               	bcf	3,5	;RP0=0, select bank0
  2046  04A5  1303               	bcf	3,6	;RP1=0, select bank0
  2047  04A6  0830               	movf	enterPass@j,w
  2048  04A7  3E35               	addlw	_PIN& (0+255)
  2049  04A8  0084               	movwf	4
  2050  04A9  1383               	bcf	3,7	;select IRP bank0
  2051  04AA  0180               	clrf	0
  2052  04AB  3001               	movlw	1
  2053  04AC  07B0               	addwf	enterPass@j,f
  2054  04AD  1803               	skipnc
  2055  04AE  0AB1               	incf	enterPass@j+1,f
  2056  04AF  3000               	movlw	0
  2057  04B0  07B1               	addwf	enterPass@j+1,f
  2058  04B1  302A               	movlw	42
  2059  04B2  120A  118A  20D5  120A  118A  	fcall	_dataCtrl
  2060  04B7  2CE2               	goto	l214
  2061  04B8                     l1606:	
  2062                           ;door-lock-system.c: 310: case 0xE: j = 8; break;
  2063                           
  2064  04B8  3008               	movlw	8
  2065  04B9  1283               	bcf	3,5	;RP0=0, select bank0
  2066  04BA  1303               	bcf	3,6	;RP1=0, select bank0
  2067  04BB  00B0               	movwf	enterPass@j
  2068  04BC  3000               	movlw	0
  2069  04BD  00B1               	movwf	enterPass@j+1
  2070                           
  2071                           ;door-lock-system.c: 312: }
  2072                           
  2073                           ;door-lock-system.c: 311: default: break;
  2074  04BE  2CE2               	goto	l214
  2075  04BF                     l1610:	
  2076  04BF  082F               	movf	enterPass@keyData,w
  2077                           
  2078                           ; Switch size 1, requested type "space"
  2079                           ; Number of cases is 11, Range of values is 0 to 14
  2080                           ; switch strategies available:
  2081                           ; Name         Instructions Cycles
  2082                           ; simple_byte           34    18 (average)
  2083                           ; direct_byte           53     8 (fixed)
  2084                           ; jumptable            260     6 (fixed)
  2085                           ;	Chosen strategy is simple_byte
  2086  04C0  3A00               	xorlw	0	; case 0
  2087  04C1  1903               	skipnz
  2088  04C2  2BD9               	goto	l1546
  2089  04C3  3A01               	xorlw	1	; case 1
  2090  04C4  1903               	skipnz
  2091  04C5  2BEC               	goto	l1552
  2092  04C6  3A03               	xorlw	3	; case 2
  2093  04C7  1903               	skipnz
  2094  04C8  2C03               	goto	l1558
  2095  04C9  3A06               	xorlw	6	; case 4
  2096  04CA  1903               	skipnz
  2097  04CB  2C1A               	goto	l1564
  2098  04CC  3A01               	xorlw	1	; case 5
  2099  04CD  1903               	skipnz
  2100  04CE  2C31               	goto	l1570
  2101  04CF  3A03               	xorlw	3	; case 6
  2102  04D0  1903               	skipnz
  2103  04D1  2C48               	goto	l1576
  2104  04D2  3A0E               	xorlw	14	; case 8
  2105  04D3  1903               	skipnz
  2106  04D4  2C5F               	goto	l1582
  2107  04D5  3A01               	xorlw	1	; case 9
  2108  04D6  1903               	skipnz
  2109  04D7  2C76               	goto	l1588
  2110  04D8  3A03               	xorlw	3	; case 10
  2111  04D9  1903               	skipnz
  2112  04DA  2C8D               	goto	l1594
  2113  04DB  3A07               	xorlw	7	; case 13
  2114  04DC  1903               	skipnz
  2115  04DD  2CA4               	goto	l1600
  2116  04DE  3A03               	xorlw	3	; case 14
  2117  04DF  1903               	skipnz
  2118  04E0  2CB8               	goto	l1606
  2119  04E1  2CE2               	goto	l214
  2120  04E2                     l214:	
  2121                           ;door-lock-system.c: 313: while (RD4);
  2122                           
  2123  04E2  1283               	bcf	3,5	;RP0=0, select bank0
  2124  04E3  1303               	bcf	3,6	;RP1=0, select bank0
  2125  04E4  1A08               	btfsc	8,4	;volatile
  2126  04E5  2CE2               	goto	l214
  2127                           
  2128                           ;door-lock-system.c: 314: _delay((unsigned long)((50)*(4000000/4000.0)));
  2129  04E6  3041               	movlw	65
  2130  04E7  00AE               	movwf	??_enterPass+1
  2131  04E8  30EE               	movlw	238
  2132  04E9  00AD               	movwf	??_enterPass
  2133  04EA                     u1007:	
  2134  04EA  0BAD               	decfsz	??_enterPass,f
  2135  04EB  2CEA               	goto	u1007
  2136  04EC  0BAE               	decfsz	??_enterPass+1,f
  2137  04ED  2CEA               	goto	u1007
  2138  04EE  0000               	nop
  2139  04EF  2BB7               	goto	l1614
  2140  04F0                     l1616:	
  2141                           
  2142                           ;door-lock-system.c: 315: }
  2143                           ;door-lock-system.c: 316: }
  2144                           ;door-lock-system.c: 317: verifyPIN();
  2145  04F0  120A  118A  22D2   	fcall	_verifyPIN
  2146  04F3  0008               	return
  2147  04F4                     __end_of_enterPass:	
  2148                           
  2149                           	psect	text5
  2150  02D2                     __ptext5:	
  2151 ;; *************** function _verifyPIN *****************
  2152 ;; Defined at:
  2153 ;;		line 238 in file "D:\From old laptop\Subjects\Uni\3rd Year M\2nd sem\Embedded Systems\Final\door-lock-system\door-lo
      +ck-system.c"
  2154 ;; Parameters:    Size  Location     Type
  2155 ;;		None
  2156 ;; Auto vars:     Size  Location     Type
  2157 ;;  i               2   11[BANK0 ] int 
  2158 ;;  match           2    9[BANK0 ] int 
  2159 ;; Return value:  Size  Location     Type
  2160 ;;		None               void
  2161 ;; Registers used:
  2162 ;;		wreg, fsr0l, fsr0h, status,2, status,0, btemp+1, pclath, cstack
  2163 ;; Tracked objects:
  2164 ;;		On entry : 0/0
  2165 ;;		On exit  : 0/0
  2166 ;;		Unchanged: 0/0
  2167 ;; Data sizes:     COMMON   BANK0   BANK1   BANK3   BANK2
  2168 ;;      Params:         0       0       0       0       0
  2169 ;;      Locals:         0       4       0       0       0
  2170 ;;      Temps:          0       3       0       0       0
  2171 ;;      Totals:         0       7       0       0       0
  2172 ;;Total ram usage:        7 bytes
  2173 ;; Hardware stack levels used:    1
  2174 ;; Hardware stack levels required when called:    4
  2175 ;; This function calls:
  2176 ;;		_displayMsg
  2177 ;;		_initLCD
  2178 ;;		_instCtrl
  2179 ;;		_locked
  2180 ;;		_setServoClockwise
  2181 ;;		_setServoCounterClockwise
  2182 ;; This function is called by:
  2183 ;;		_enterPass
  2184 ;; This function uses a non-reentrant model
  2185 ;;
  2186                           
  2187                           
  2188                           ;psect for function _verifyPIN
  2189  02D2                     _verifyPIN:	
  2190                           
  2191                           ;door-lock-system.c: 239: int match = 1;
  2192                           
  2193                           ;incstack = 0
  2194                           ; Regs used in _verifyPIN: [wreg-fsr0h+status,2+status,0+btemp+1+pclath+cstack]
  2195  02D2  3001               	movlw	1
  2196  02D3  1283               	bcf	3,5	;RP0=0, select bank0
  2197  02D4  1303               	bcf	3,6	;RP1=0, select bank0
  2198  02D5  00A9               	movwf	verifyPIN@match
  2199  02D6  3000               	movlw	0
  2200  02D7  00AA               	movwf	verifyPIN@match+1
  2201                           
  2202                           ;door-lock-system.c: 240: for (int i = 0; i < 8; i++) {
  2203  02D8  01AB               	clrf	verifyPIN@i
  2204  02D9  01AC               	clrf	verifyPIN@i+1
  2205  02DA  082C               	movf	verifyPIN@i+1,w
  2206  02DB  3A80               	xorlw	128
  2207  02DC  00FF               	movwf	127
  2208  02DD  3080               	movlw	128
  2209  02DE  027F               	subwf	127,w
  2210  02DF  1D03               	skipz
  2211  02E0  2AE3               	goto	u645
  2212  02E1  3008               	movlw	8
  2213  02E2  022B               	subwf	verifyPIN@i,w
  2214  02E3                     u645:	
  2215  02E3  1803               	btfsc	3,0
  2216  02E4  2B08               	goto	l1370
  2217  02E5                     l1362:	
  2218                           
  2219                           ;door-lock-system.c: 241: if (correctPIN[i] != PIN[i]) {
  2220  02E5  1283               	bcf	3,5	;RP0=0, select bank0
  2221  02E6  1303               	bcf	3,6	;RP1=0, select bank0
  2222  02E7  082B               	movf	verifyPIN@i,w
  2223  02E8  3E35               	addlw	_PIN& (0+255)
  2224  02E9  0084               	movwf	4
  2225  02EA  1383               	bcf	3,7	;select IRP bank0
  2226  02EB  0800               	movf	0,w
  2227  02EC  00A6               	movwf	??_verifyPIN
  2228  02ED  082B               	movf	verifyPIN@i,w
  2229  02EE  3E3D               	addlw	_correctPIN& (0+255)
  2230  02EF  0084               	movwf	4
  2231  02F0  0800               	movf	0,w
  2232  02F1  0626               	xorwf	??_verifyPIN,w
  2233  02F2  1903               	skipnz
  2234  02F3  2AF7               	goto	l1366
  2235                           
  2236                           ;door-lock-system.c: 242: match = 0;
  2237  02F4  01A9               	clrf	verifyPIN@match
  2238  02F5  01AA               	clrf	verifyPIN@match+1
  2239                           
  2240                           ;door-lock-system.c: 243: break;
  2241  02F6  2B08               	goto	l1370
  2242  02F7                     l1366:	
  2243  02F7  3001               	movlw	1
  2244  02F8  07AB               	addwf	verifyPIN@i,f
  2245  02F9  1803               	skipnc
  2246  02FA  0AAC               	incf	verifyPIN@i+1,f
  2247  02FB  3000               	movlw	0
  2248  02FC  07AC               	addwf	verifyPIN@i+1,f
  2249  02FD  082C               	movf	verifyPIN@i+1,w
  2250  02FE  3A80               	xorlw	128
  2251  02FF  00FF               	movwf	127
  2252  0300  3080               	movlw	128
  2253  0301  027F               	subwf	127,w
  2254  0302  1D03               	skipz
  2255  0303  2B06               	goto	u665
  2256  0304  3008               	movlw	8
  2257  0305  022B               	subwf	verifyPIN@i,w
  2258  0306                     u665:	
  2259  0306  1C03               	skipc
  2260  0307  2AE5               	goto	l1362
  2261  0308                     l1370:	
  2262                           
  2263                           ;door-lock-system.c: 244: }
  2264                           ;door-lock-system.c: 245: }
  2265                           ;door-lock-system.c: 247: if (match) {
  2266  0308  1283               	bcf	3,5	;RP0=0, select bank0
  2267  0309  1303               	bcf	3,6	;RP1=0, select bank0
  2268  030A  082A               	movf	verifyPIN@match+1,w
  2269  030B  0429               	iorwf	verifyPIN@match,w
  2270  030C  1903               	skipnz
  2271  030D  2B5B               	goto	l1398
  2272                           
  2273                           ;door-lock-system.c: 248: instCtrl(0x01);
  2274  030E  3001               	movlw	1
  2275  030F  120A  118A  20E8  120A  118A  	fcall	_instCtrl
  2276                           
  2277                           ;door-lock-system.c: 249: displayMsg("VALID PIN");
  2278  0314  3057               	movlw	(STR_1-__stringbase)& (0+255)
  2279  0315  120A  118A  211C  120A  118A  	fcall	_displayMsg
  2280                           
  2281                           ;door-lock-system.c: 250: invalid_flag = 0;
  2282  031A  1283               	bcf	3,5	;RP0=0, select bank0
  2283  031B  1303               	bcf	3,6	;RP1=0, select bank0
  2284  031C  104E               	bcf	_invalid_flag/(0+8),_invalid_flag& (0+7)
  2285                           
  2286                           ;door-lock-system.c: 253: setServoCounterClockwise();
  2287  031D  120A  118A  20AD  120A  118A  	fcall	_setServoCounterClockwise
  2288                           
  2289                           ;door-lock-system.c: 255: if(RCIF){
  2290  0322  1283               	bcf	3,5	;RP0=0, select bank0
  2291  0323  1303               	bcf	3,6	;RP1=0, select bank0
  2292  0324  1E8C               	btfss	12,5	;volatile
  2293  0325  2B2B               	goto	l1384
  2294                           
  2295                           ;door-lock-system.c: 256: setServoClockwise();
  2296  0326  120A  118A  20A6  120A  118A  	fcall	_setServoClockwise
  2297  032B                     l1384:	
  2298                           
  2299                           ;door-lock-system.c: 257: }
  2300                           ;door-lock-system.c: 258: _delay((unsigned long)((15000)*(4000000/4000.0)));
  2301  032B  304D               	movlw	77
  2302  032C  1283               	bcf	3,5	;RP0=0, select bank0
  2303  032D  1303               	bcf	3,6	;RP1=0, select bank0
  2304  032E  00A8               	movwf	??_verifyPIN+2
  2305  032F  3019               	movlw	25
  2306  0330  00A7               	movwf	??_verifyPIN+1
  2307  0331  309A               	movlw	154
  2308  0332  00A6               	movwf	??_verifyPIN
  2309  0333                     u1017:	
  2310  0333  0BA6               	decfsz	??_verifyPIN,f
  2311  0334  2B33               	goto	u1017
  2312  0335  0BA7               	decfsz	??_verifyPIN+1,f
  2313  0336  2B33               	goto	u1017
  2314  0337  0BA8               	decfsz	??_verifyPIN+2,f
  2315  0338  2B33               	goto	u1017
  2316  0339  2B3A               	nop2
  2317                           
  2318                           ;door-lock-system.c: 260: setServoClockwise();
  2319  033A  120A  118A  20A6  120A  118A  	fcall	_setServoClockwise
  2320                           
  2321                           ;door-lock-system.c: 262: initLCD();
  2322  033F  120A  118A  2161  120A  118A  	fcall	_initLCD
  2323                           
  2324                           ;door-lock-system.c: 263: instCtrl(0x80);
  2325  0344  3080               	movlw	128
  2326  0345  120A  118A  20E8  120A  118A  	fcall	_instCtrl
  2327                           
  2328                           ;door-lock-system.c: 264: displayMsg("[1]Set PIN");
  2329  034A  3041               	movlw	(STR_2-__stringbase)& (0+255)
  2330  034B  120A  118A  211C  120A  118A  	fcall	_displayMsg
  2331                           
  2332                           ;door-lock-system.c: 265: instCtrl(0xC0);
  2333  0350  30C0               	movlw	192
  2334  0351  120A  118A  20E8  120A  118A  	fcall	_instCtrl
  2335                           
  2336                           ;door-lock-system.c: 266: displayMsg("[2]Enter PIN");
  2337  0356  301D               	movlw	(STR_3-__stringbase)& (0+255)
  2338  0357  120A  118A  211C   	fcall	_displayMsg
  2339                           
  2340                           ;door-lock-system.c: 267: } else {
  2341  035A  0008               	return
  2342  035B                     l1398:	
  2343                           
  2344                           ;door-lock-system.c: 268: trial--;
  2345  035B  30FF               	movlw	255
  2346  035C  1283               	bcf	3,5	;RP0=0, select bank0
  2347  035D  1303               	bcf	3,6	;RP1=0, select bank0
  2348  035E  07C8               	addwf	_trial,f
  2349  035F  1803               	skipnc
  2350  0360  0AC9               	incf	_trial+1,f
  2351  0361  30FF               	movlw	255
  2352  0362  07C9               	addwf	_trial+1,f
  2353                           
  2354                           ;door-lock-system.c: 269: instCtrl(0x01);
  2355  0363  3001               	movlw	1
  2356  0364  120A  118A  20E8  120A  118A  	fcall	_instCtrl
  2357                           
  2358                           ;door-lock-system.c: 270: displayMsg("INVALID PIN!");
  2359  0369  3010               	movlw	(STR_4-__stringbase)& (0+255)
  2360  036A  120A  118A  211C  120A  118A  	fcall	_displayMsg
  2361                           
  2362                           ;door-lock-system.c: 271: invalid_flag = 1;
  2363  036F  1283               	bcf	3,5	;RP0=0, select bank0
  2364  0370  1303               	bcf	3,6	;RP1=0, select bank0
  2365  0371  144E               	bsf	_invalid_flag/(0+8),_invalid_flag& (0+7)
  2366                           
  2367                           ;door-lock-system.c: 274: if (trial == 0) {
  2368  0372  0849               	movf	_trial+1,w
  2369  0373  0448               	iorwf	_trial,w
  2370  0374  1D03               	skipz
  2371  0375  0008               	return
  2372                           
  2373                           ;door-lock-system.c: 275: instCtrl(0x01);
  2374  0376  3001               	movlw	1
  2375  0377  120A  118A  20E8  120A  118A  	fcall	_instCtrl
  2376                           
  2377                           ;door-lock-system.c: 276: displayMsg("NO TRIALS LEFT");
  2378  037C  3001               	movlw	(STR_5-__stringbase)& (0+255)
  2379  037D  120A  118A  211C  120A  118A  	fcall	_displayMsg
  2380                           
  2381                           ;door-lock-system.c: 277: _delay((unsigned long)((1000)*(4000000/4000.0)));
  2382  0382  3006               	movlw	6
  2383  0383  1283               	bcf	3,5	;RP0=0, select bank0
  2384  0384  1303               	bcf	3,6	;RP1=0, select bank0
  2385  0385  00A8               	movwf	??_verifyPIN+2
  2386  0386  3013               	movlw	19
  2387  0387  00A7               	movwf	??_verifyPIN+1
  2388  0388  30B1               	movlw	177
  2389  0389  00A6               	movwf	??_verifyPIN
  2390  038A                     u1027:	
  2391  038A  0BA6               	decfsz	??_verifyPIN,f
  2392  038B  2B8A               	goto	u1027
  2393  038C  0BA7               	decfsz	??_verifyPIN+1,f
  2394  038D  2B8A               	goto	u1027
  2395  038E  0BA8               	decfsz	??_verifyPIN+2,f
  2396  038F  2B8A               	goto	u1027
  2397  0390  2B91               	nop2
  2398  0391                     l188:	
  2399                           ;door-lock-system.c: 279: while(!TXIF);
  2400                           
  2401  0391  1283               	bcf	3,5	;RP0=0, select bank0
  2402  0392  1303               	bcf	3,6	;RP1=0, select bank0
  2403  0393  1E0C               	btfss	12,4	;volatile
  2404  0394  2B91               	goto	l188
  2405                           
  2406                           ;door-lock-system.c: 280: TXREG = '1';
  2407  0395  3031               	movlw	49
  2408  0396  0099               	movwf	25	;volatile
  2409                           
  2410                           ;door-lock-system.c: 281: _delay((unsigned long)((2)*(4000000/4000.0)));
  2411  0397  3003               	movlw	3
  2412  0398  00A7               	movwf	??_verifyPIN+1
  2413  0399  3097               	movlw	151
  2414  039A  00A6               	movwf	??_verifyPIN
  2415  039B                     u1037:	
  2416  039B  0BA6               	decfsz	??_verifyPIN,f
  2417  039C  2B9B               	goto	u1037
  2418  039D  0BA7               	decfsz	??_verifyPIN+1,f
  2419  039E  2B9B               	goto	u1037
  2420  039F  2BA0               	nop2
  2421  03A0                     l191:	
  2422                           ;door-lock-system.c: 282: while(!TXIF);
  2423                           
  2424  03A0  1283               	bcf	3,5	;RP0=0, select bank0
  2425  03A1  1303               	bcf	3,6	;RP1=0, select bank0
  2426  03A2  1E0C               	btfss	12,4	;volatile
  2427  03A3  2BA0               	goto	l191
  2428                           
  2429                           ;door-lock-system.c: 283: TXREG = '\n';
  2430  03A4  300A               	movlw	10
  2431  03A5  0099               	movwf	25	;volatile
  2432                           
  2433                           ;door-lock-system.c: 284: _delay((unsigned long)((2)*(4000000/4000.0)));
  2434  03A6  3003               	movlw	3
  2435  03A7  00A7               	movwf	??_verifyPIN+1
  2436  03A8  3097               	movlw	151
  2437  03A9  00A6               	movwf	??_verifyPIN
  2438  03AA                     u1047:	
  2439  03AA  0BA6               	decfsz	??_verifyPIN,f
  2440  03AB  2BAA               	goto	u1047
  2441  03AC  0BA7               	decfsz	??_verifyPIN+1,f
  2442  03AD  2BAA               	goto	u1047
  2443  03AE  2BAF               	nop2
  2444                           
  2445                           ;door-lock-system.c: 286: locked();
  2446  03AF  120A  118A  20A5   	fcall	_locked
  2447  03B2  0008               	return
  2448  03B3                     __end_of_verifyPIN:	
  2449                           
  2450                           	psect	text6
  2451  00AD                     __ptext6:	
  2452 ;; *************** function _setServoCounterClockwise *****************
  2453 ;; Defined at:
  2454 ;;		line 145 in file "D:\From old laptop\Subjects\Uni\3rd Year M\2nd sem\Embedded Systems\Final\door-lock-system\door-lo
      +ck-system.c"
  2455 ;; Parameters:    Size  Location     Type
  2456 ;;		None
  2457 ;; Auto vars:     Size  Location     Type
  2458 ;;		None
  2459 ;; Return value:  Size  Location     Type
  2460 ;;		None               void
  2461 ;; Registers used:
  2462 ;;		wreg, status,2, status,0, pclath, cstack
  2463 ;; Tracked objects:
  2464 ;;		On entry : 0/0
  2465 ;;		On exit  : 0/0
  2466 ;;		Unchanged: 0/0
  2467 ;; Data sizes:     COMMON   BANK0   BANK1   BANK3   BANK2
  2468 ;;      Params:         0       0       0       0       0
  2469 ;;      Locals:         0       0       0       0       0
  2470 ;;      Temps:          0       0       0       0       0
  2471 ;;      Totals:         0       0       0       0       0
  2472 ;;Total ram usage:        0 bytes
  2473 ;; Hardware stack levels used:    1
  2474 ;; Hardware stack levels required when called:    3
  2475 ;; This function calls:
  2476 ;;		_moveToPosition
  2477 ;; This function is called by:
  2478 ;;		_verifyPIN
  2479 ;;		_main
  2480 ;; This function uses a non-reentrant model
  2481 ;;
  2482                           
  2483                           
  2484                           ;psect for function _setServoCounterClockwise
  2485  00AD                     _setServoCounterClockwise:	
  2486                           
  2487                           ;door-lock-system.c: 146: moveToPosition(SERVO_MAX_POS);
  2488                           
  2489                           ;incstack = 0
  2490                           ; Regs used in _setServoCounterClockwise: [wreg+status,2+status,0+pclath+cstack]
  2491  00AD  1283               	bcf	3,5	;RP0=0, select bank0
  2492  00AE  1303               	bcf	3,6	;RP1=0, select bank0
  2493  00AF  084A               	movf	_SERVO_MAX_POS,w
  2494  00B0  120A  118A  224D   	fcall	_moveToPosition
  2495  00B3  0008               	return
  2496  00B4                     __end_of_setServoCounterClockwise:	
  2497                           
  2498                           	psect	text7
  2499  00A6                     __ptext7:	
  2500 ;; *************** function _setServoClockwise *****************
  2501 ;; Defined at:
  2502 ;;		line 141 in file "D:\From old laptop\Subjects\Uni\3rd Year M\2nd sem\Embedded Systems\Final\door-lock-system\door-lo
      +ck-system.c"
  2503 ;; Parameters:    Size  Location     Type
  2504 ;;		None
  2505 ;; Auto vars:     Size  Location     Type
  2506 ;;		None
  2507 ;; Return value:  Size  Location     Type
  2508 ;;		None               void
  2509 ;; Registers used:
  2510 ;;		wreg, status,2, status,0, pclath, cstack
  2511 ;; Tracked objects:
  2512 ;;		On entry : 0/0
  2513 ;;		On exit  : 0/0
  2514 ;;		Unchanged: 0/0
  2515 ;; Data sizes:     COMMON   BANK0   BANK1   BANK3   BANK2
  2516 ;;      Params:         0       0       0       0       0
  2517 ;;      Locals:         0       0       0       0       0
  2518 ;;      Temps:          0       0       0       0       0
  2519 ;;      Totals:         0       0       0       0       0
  2520 ;;Total ram usage:        0 bytes
  2521 ;; Hardware stack levels used:    1
  2522 ;; Hardware stack levels required when called:    3
  2523 ;; This function calls:
  2524 ;;		_moveToPosition
  2525 ;; This function is called by:
  2526 ;;		_verifyPIN
  2527 ;;		_main
  2528 ;; This function uses a non-reentrant model
  2529 ;;
  2530                           
  2531                           
  2532                           ;psect for function _setServoClockwise
  2533  00A6                     _setServoClockwise:	
  2534                           
  2535                           ;door-lock-system.c: 142: moveToPosition(SERVO_MIN_POS);
  2536                           
  2537                           ;incstack = 0
  2538                           ; Regs used in _setServoClockwise: [wreg+status,2+status,0+pclath+cstack]
  2539  00A6  1283               	bcf	3,5	;RP0=0, select bank0
  2540  00A7  1303               	bcf	3,6	;RP1=0, select bank0
  2541  00A8  084C               	movf	_SERVO_MIN_POS,w
  2542  00A9  120A  118A  224D   	fcall	_moveToPosition
  2543  00AC  0008               	return
  2544  00AD                     __end_of_setServoClockwise:	
  2545                           
  2546                           	psect	text8
  2547  024D                     __ptext8:	
  2548 ;; *************** function _moveToPosition *****************
  2549 ;; Defined at:
  2550 ;;		line 116 in file "D:\From old laptop\Subjects\Uni\3rd Year M\2nd sem\Embedded Systems\Final\door-lock-system\door-lo
      +ck-system.c"
  2551 ;; Parameters:    Size  Location     Type
  2552 ;;  position        1    wreg     unsigned char 
  2553 ;; Auto vars:     Size  Location     Type
  2554 ;;  position        1    5[BANK0 ] unsigned char 
  2555 ;;  pos             1    4[BANK0 ] unsigned char 
  2556 ;;  pos             1    3[BANK0 ] unsigned char 
  2557 ;; Return value:  Size  Location     Type
  2558 ;;		None               void
  2559 ;; Registers used:
  2560 ;;		wreg, status,2, status,0, pclath, cstack
  2561 ;; Tracked objects:
  2562 ;;		On entry : 0/0
  2563 ;;		On exit  : 0/0
  2564 ;;		Unchanged: 0/0
  2565 ;; Data sizes:     COMMON   BANK0   BANK1   BANK3   BANK2
  2566 ;;      Params:         0       0       0       0       0
  2567 ;;      Locals:         0       3       0       0       0
  2568 ;;      Temps:          0       3       0       0       0
  2569 ;;      Totals:         0       6       0       0       0
  2570 ;;Total ram usage:        6 bytes
  2571 ;; Hardware stack levels used:    1
  2572 ;; Hardware stack levels required when called:    2
  2573 ;; This function calls:
  2574 ;;		_setServoPosition
  2575 ;; This function is called by:
  2576 ;;		_setServoClockwise
  2577 ;;		_setServoCounterClockwise
  2578 ;; This function uses a non-reentrant model
  2579 ;;
  2580                           
  2581                           
  2582                           ;psect for function _moveToPosition
  2583  024D                     _moveToPosition:	
  2584                           
  2585                           ;incstack = 0
  2586                           ; Regs used in _moveToPosition: [wreg+status,2+status,0+pclath+cstack]
  2587                           ;moveToPosition@position stored from wreg
  2588  024D  1283               	bcf	3,5	;RP0=0, select bank0
  2589  024E  1303               	bcf	3,6	;RP1=0, select bank0
  2590  024F  00A5               	movwf	moveToPosition@position
  2591                           
  2592                           ;door-lock-system.c: 118: if (position > currentPosition + 2 || position < currentPositi
      +                          on - 2) {
  2593  0250  084D               	movf	_currentPosition,w
  2594  0251  3E02               	addlw	2
  2595  0252  00A0               	movwf	??_moveToPosition
  2596  0253  3000               	movlw	0
  2597  0254  1803               	skipnc
  2598  0255  3001               	movlw	1
  2599  0256  00A1               	movwf	??_moveToPosition+1
  2600  0257  0821               	movf	??_moveToPosition+1,w
  2601  0258  3A80               	xorlw	128
  2602  0259  00A2               	movwf	??_moveToPosition+2
  2603  025A  3080               	movlw	128
  2604  025B  0222               	subwf	??_moveToPosition+2,w
  2605  025C  1D03               	skipz
  2606  025D  2A60               	goto	u575
  2607  025E  0825               	movf	moveToPosition@position,w
  2608  025F  0220               	subwf	??_moveToPosition,w
  2609  0260                     u575:	
  2610  0260  1C03               	skipc
  2611  0261  2A74               	goto	l1288
  2612  0262  1283               	bcf	3,5	;RP0=0, select bank0
  2613  0263  1303               	bcf	3,6	;RP1=0, select bank0
  2614  0264  084D               	movf	_currentPosition,w
  2615  0265  3EFE               	addlw	254
  2616  0266  00A0               	movwf	??_moveToPosition
  2617  0267  30FF               	movlw	255
  2618  0268  1803               	skipnc
  2619  0269  3000               	movlw	0
  2620  026A  00A1               	movwf	??_moveToPosition+1
  2621  026B  0821               	movf	??_moveToPosition+1,w
  2622  026C  3A80               	xorlw	128
  2623  026D  3C80               	sublw	128
  2624  026E  1D03               	skipz
  2625  026F  2A72               	goto	u585
  2626  0270  0820               	movf	??_moveToPosition,w
  2627  0271  0225               	subwf	moveToPosition@position,w
  2628  0272                     u585:	
  2629  0272  1803               	skipnc
  2630  0273  0008               	return
  2631  0274                     l1288:	
  2632                           
  2633                           ;door-lock-system.c: 120: if(position > currentPosition) {
  2634  0274  1283               	bcf	3,5	;RP0=0, select bank0
  2635  0275  1303               	bcf	3,6	;RP1=0, select bank0
  2636  0276  0825               	movf	moveToPosition@position,w
  2637  0277  024D               	subwf	_currentPosition,w
  2638  0278  1803               	skipnc
  2639  0279  2A9A               	goto	l1300
  2640                           
  2641                           ;door-lock-system.c: 122: for(uint8_t pos = currentPosition; pos < position; pos += 3) {
  2642  027A  084D               	movf	_currentPosition,w
  2643  027B  00A0               	movwf	??_moveToPosition
  2644  027C  0820               	movf	??_moveToPosition,w
  2645  027D  00A3               	movwf	moveToPosition@pos
  2646  027E                     l1298:	
  2647  027E  0825               	movf	moveToPosition@position,w
  2648  027F  0223               	subwf	moveToPosition@pos,w
  2649  0280  1803               	btfsc	3,0
  2650  0281  2ABC               	goto	l1312
  2651                           
  2652                           ;door-lock-system.c: 123: setServoPosition(pos);
  2653  0282  0823               	movf	moveToPosition@pos,w
  2654  0283  120A  118A  2200  120A  118A  	fcall	_setServoPosition
  2655                           
  2656                           ;door-lock-system.c: 124: _delay((unsigned long)((20)*(4000000/4000.0)));
  2657  0288  301A               	movlw	26
  2658  0289  1283               	bcf	3,5	;RP0=0, select bank0
  2659  028A  1303               	bcf	3,6	;RP1=0, select bank0
  2660  028B  00A1               	movwf	??_moveToPosition+1
  2661  028C  30F8               	movlw	248
  2662  028D  00A0               	movwf	??_moveToPosition
  2663  028E                     u1057:	
  2664  028E  0BA0               	decfsz	??_moveToPosition,f
  2665  028F  2A8E               	goto	u1057
  2666  0290  0BA1               	decfsz	??_moveToPosition+1,f
  2667  0291  2A8E               	goto	u1057
  2668  0292  0000               	nop
  2669  0293  3003               	movlw	3
  2670  0294  1283               	bcf	3,5	;RP0=0, select bank0
  2671  0295  1303               	bcf	3,6	;RP1=0, select bank0
  2672  0296  00A0               	movwf	??_moveToPosition
  2673  0297  0820               	movf	??_moveToPosition,w
  2674  0298  07A3               	addwf	moveToPosition@pos,f
  2675  0299  2A7E               	goto	l1298
  2676  029A                     l1300:	
  2677                           ;door-lock-system.c: 125: }
  2678                           ;door-lock-system.c: 126: } else if(position < currentPosition) {
  2679                           
  2680  029A  084D               	movf	_currentPosition,w
  2681  029B  0225               	subwf	moveToPosition@position,w
  2682  029C  1803               	skipnc
  2683  029D  2ABC               	goto	l1312
  2684                           
  2685                           ;door-lock-system.c: 128: for(uint8_t pos = currentPosition; pos > position; pos -= 3) {
  2686  029E  084D               	movf	_currentPosition,w
  2687  029F  00A0               	movwf	??_moveToPosition
  2688  02A0  0820               	movf	??_moveToPosition,w
  2689  02A1  00A4               	movwf	moveToPosition@pos_166
  2690  02A2                     l1310:	
  2691  02A2  0824               	movf	moveToPosition@pos_166,w
  2692  02A3  0225               	subwf	moveToPosition@position,w
  2693  02A4  1803               	btfsc	3,0
  2694  02A5  2ABC               	goto	l1312
  2695                           
  2696                           ;door-lock-system.c: 129: setServoPosition(pos);
  2697  02A6  0824               	movf	moveToPosition@pos_166,w
  2698  02A7  120A  118A  2200  120A  118A  	fcall	_setServoPosition
  2699                           
  2700                           ;door-lock-system.c: 130: _delay((unsigned long)((20)*(4000000/4000.0)));
  2701  02AC  301A               	movlw	26
  2702  02AD  1283               	bcf	3,5	;RP0=0, select bank0
  2703  02AE  1303               	bcf	3,6	;RP1=0, select bank0
  2704  02AF  00A1               	movwf	??_moveToPosition+1
  2705  02B0  30F8               	movlw	248
  2706  02B1  00A0               	movwf	??_moveToPosition
  2707  02B2                     u1067:	
  2708  02B2  0BA0               	decfsz	??_moveToPosition,f
  2709  02B3  2AB2               	goto	u1067
  2710  02B4  0BA1               	decfsz	??_moveToPosition+1,f
  2711  02B5  2AB2               	goto	u1067
  2712  02B6  0000               	nop
  2713  02B7  3003               	movlw	3
  2714  02B8  1283               	bcf	3,5	;RP0=0, select bank0
  2715  02B9  1303               	bcf	3,6	;RP1=0, select bank0
  2716  02BA  02A4               	subwf	moveToPosition@pos_166,f
  2717  02BB  2AA2               	goto	l1310
  2718  02BC                     l1312:	
  2719                           
  2720                           ;door-lock-system.c: 131: }
  2721                           ;door-lock-system.c: 132: }
  2722                           ;door-lock-system.c: 135: setServoPosition(position);
  2723  02BC  0825               	movf	moveToPosition@position,w
  2724  02BD  120A  118A  2200  120A  118A  	fcall	_setServoPosition
  2725                           
  2726                           ;door-lock-system.c: 138: _delay((unsigned long)((500)*(4000000/4000.0)));
  2727  02C2  3003               	movlw	3
  2728  02C3  1283               	bcf	3,5	;RP0=0, select bank0
  2729  02C4  1303               	bcf	3,6	;RP1=0, select bank0
  2730  02C5  00A2               	movwf	??_moveToPosition+2
  2731  02C6  308A               	movlw	138
  2732  02C7  00A1               	movwf	??_moveToPosition+1
  2733  02C8  3056               	movlw	86
  2734  02C9  00A0               	movwf	??_moveToPosition
  2735  02CA                     u1077:	
  2736  02CA  0BA0               	decfsz	??_moveToPosition,f
  2737  02CB  2ACA               	goto	u1077
  2738  02CC  0BA1               	decfsz	??_moveToPosition+1,f
  2739  02CD  2ACA               	goto	u1077
  2740  02CE  0BA2               	decfsz	??_moveToPosition+2,f
  2741  02CF  2ACA               	goto	u1077
  2742  02D0  2AD1               	nop2
  2743  02D1  0008               	return
  2744  02D2                     __end_of_moveToPosition:	
  2745                           
  2746                           	psect	text9
  2747  0200                     __ptext9:	
  2748 ;; *************** function _setServoPosition *****************
  2749 ;; Defined at:
  2750 ;;		line 99 in file "D:\From old laptop\Subjects\Uni\3rd Year M\2nd sem\Embedded Systems\Final\door-lock-system\door-loc
      +k-system.c"
  2751 ;; Parameters:    Size  Location     Type
  2752 ;;  position        1    wreg     unsigned char 
  2753 ;; Auto vars:     Size  Location     Type
  2754 ;;  position        1   12[COMMON] unsigned char 
  2755 ;;  duty            2   10[COMMON] unsigned int 
  2756 ;;  scaledPositi    2    8[COMMON] unsigned int 
  2757 ;; Return value:  Size  Location     Type
  2758 ;;		None               void
  2759 ;; Registers used:
  2760 ;;		wreg, status,2, status,0, pclath, cstack
  2761 ;; Tracked objects:
  2762 ;;		On entry : 0/0
  2763 ;;		On exit  : 0/0
  2764 ;;		Unchanged: 0/0
  2765 ;; Data sizes:     COMMON   BANK0   BANK1   BANK3   BANK2
  2766 ;;      Params:         0       0       0       0       0
  2767 ;;      Locals:         5       0       0       0       0
  2768 ;;      Temps:          2       0       0       0       0
  2769 ;;      Totals:         7       0       0       0       0
  2770 ;;Total ram usage:        7 bytes
  2771 ;; Hardware stack levels used:    1
  2772 ;; Hardware stack levels required when called:    1
  2773 ;; This function calls:
  2774 ;;		___wmul
  2775 ;; This function is called by:
  2776 ;;		_initialize
  2777 ;;		_moveToPosition
  2778 ;; This function uses a non-reentrant model
  2779 ;;
  2780                           
  2781                           
  2782                           ;psect for function _setServoPosition
  2783  0200                     _setServoPosition:	
  2784                           
  2785                           ;incstack = 0
  2786                           ; Regs used in _setServoPosition: [wreg+status,2+status,0+pclath+cstack]
  2787                           ;setServoPosition@position stored from wreg
  2788  0200  00FC               	movwf	setServoPosition@position
  2789                           
  2790                           ;door-lock-system.c: 101: if(position < 50) position = 50;
  2791  0201  3032               	movlw	50
  2792  0202  027C               	subwf	setServoPosition@position,w
  2793  0203  1803               	skipnc
  2794  0204  2A09               	goto	l98
  2795  0205  3032               	movlw	50
  2796  0206  00F6               	movwf	??_setServoPosition
  2797  0207  0876               	movf	??_setServoPosition,w
  2798  0208  00FC               	movwf	setServoPosition@position
  2799  0209                     l98:	
  2800                           
  2801                           ;door-lock-system.c: 102: if(position > 240) position = 240;
  2802  0209  30F1               	movlw	241
  2803  020A  027C               	subwf	setServoPosition@position,w
  2804  020B  1C03               	skipc
  2805  020C  2A11               	goto	l1254
  2806  020D  30F0               	movlw	240
  2807  020E  00F6               	movwf	??_setServoPosition
  2808  020F  0876               	movf	??_setServoPosition,w
  2809  0210  00FC               	movwf	setServoPosition@position
  2810  0211                     l1254:	
  2811                           
  2812                           ;door-lock-system.c: 105: uint16_t scaledPosition = (uint16_t)position * 10;
  2813  0211  087C               	movf	setServoPosition@position,w
  2814  0212  00F6               	movwf	??_setServoPosition
  2815  0213  01F7               	clrf	??_setServoPosition+1
  2816  0214  0876               	movf	??_setServoPosition,w
  2817  0215  00F0               	movwf	___wmul@multiplier
  2818  0216  0877               	movf	??_setServoPosition+1,w
  2819  0217  00F1               	movwf	___wmul@multiplier+1
  2820  0218  300A               	movlw	10
  2821  0219  00F2               	movwf	___wmul@multiplicand
  2822  021A  3000               	movlw	0
  2823  021B  00F3               	movwf	___wmul@multiplicand+1
  2824  021C  120A  118A  213E  120A  118A  	fcall	___wmul
  2825  0221  0871               	movf	?___wmul+1,w
  2826  0222  01F9               	clrf	setServoPosition@scaledPosition+1
  2827  0223  07F9               	addwf	setServoPosition@scaledPosition+1,f
  2828  0224  0870               	movf	?___wmul,w
  2829  0225  01F8               	clrf	setServoPosition@scaledPosition
  2830  0226  07F8               	addwf	setServoPosition@scaledPosition,f
  2831                           
  2832                           ;door-lock-system.c: 108: uint16_t duty = scaledPosition;
  2833  0227  0879               	movf	setServoPosition@scaledPosition+1,w
  2834  0228  01FB               	clrf	setServoPosition@duty+1
  2835  0229  07FB               	addwf	setServoPosition@duty+1,f
  2836  022A  0878               	movf	setServoPosition@scaledPosition,w
  2837  022B  01FA               	clrf	setServoPosition@duty
  2838  022C  07FA               	addwf	setServoPosition@duty,f
  2839                           
  2840                           ;door-lock-system.c: 109: CCPR1L = duty >> 2;
  2841  022D  087B               	movf	setServoPosition@duty+1,w
  2842  022E  00F7               	movwf	??_setServoPosition+1
  2843  022F  087A               	movf	setServoPosition@duty,w
  2844  0230  00F6               	movwf	??_setServoPosition
  2845  0231  1003               	clrc
  2846  0232  0CF7               	rrf	??_setServoPosition+1,f
  2847  0233  0CF6               	rrf	??_setServoPosition,f
  2848  0234  1003               	clrc
  2849  0235  0CF7               	rrf	??_setServoPosition+1,f
  2850  0236  0CF6               	rrf	??_setServoPosition,f
  2851  0237  0876               	movf	??_setServoPosition,w
  2852  0238  1283               	bcf	3,5	;RP0=0, select bank0
  2853  0239  1303               	bcf	3,6	;RP1=0, select bank0
  2854  023A  0095               	movwf	21	;volatile
  2855                           
  2856                           ;door-lock-system.c: 110: CCP1CON = (CCP1CON & 0xCF) | ((duty & 0x03) << 4);
  2857  023B  087A               	movf	setServoPosition@duty,w
  2858  023C  3903               	andlw	3
  2859  023D  00F6               	movwf	??_setServoPosition
  2860  023E  3004               	movlw	4
  2861  023F                     u525:	
  2862  023F  1003               	clrc
  2863  0240  0DF6               	rlf	??_setServoPosition,f
  2864  0241  3EFF               	addlw	-1
  2865  0242  1D03               	skipz
  2866  0243  2A3F               	goto	u525
  2867  0244  0817               	movf	23,w	;volatile
  2868  0245  39CF               	andlw	207
  2869  0246  0476               	iorwf	??_setServoPosition,w
  2870  0247  0097               	movwf	23	;volatile
  2871                           
  2872                           ;door-lock-system.c: 113: currentPosition = position;
  2873  0248  087C               	movf	setServoPosition@position,w
  2874  0249  00F6               	movwf	??_setServoPosition
  2875  024A  0876               	movf	??_setServoPosition,w
  2876  024B  00CD               	movwf	_currentPosition
  2877  024C  0008               	return
  2878  024D                     __end_of_setServoPosition:	
  2879                           
  2880                           	psect	text10
  2881  013E                     __ptext10:	
  2882 ;; *************** function ___wmul *****************
  2883 ;; Defined at:
  2884 ;;		line 15 in file "C:\Program Files (x86)\Microchip\xc8\v1.33\sources\common\Umul16.c"
  2885 ;; Parameters:    Size  Location     Type
  2886 ;;  multiplier      2    0[COMMON] unsigned int 
  2887 ;;  multiplicand    2    2[COMMON] unsigned int 
  2888 ;; Auto vars:     Size  Location     Type
  2889 ;;  product         2    4[COMMON] unsigned int 
  2890 ;; Return value:  Size  Location     Type
  2891 ;;                  2    0[COMMON] unsigned int 
  2892 ;; Registers used:
  2893 ;;		wreg, status,2, status,0
  2894 ;; Tracked objects:
  2895 ;;		On entry : 0/0
  2896 ;;		On exit  : 0/0
  2897 ;;		Unchanged: 0/0
  2898 ;; Data sizes:     COMMON   BANK0   BANK1   BANK3   BANK2
  2899 ;;      Params:         4       0       0       0       0
  2900 ;;      Locals:         2       0       0       0       0
  2901 ;;      Temps:          0       0       0       0       0
  2902 ;;      Totals:         6       0       0       0       0
  2903 ;;Total ram usage:        6 bytes
  2904 ;; Hardware stack levels used:    1
  2905 ;; This function calls:
  2906 ;;		Nothing
  2907 ;; This function is called by:
  2908 ;;		_setServoPosition
  2909 ;; This function uses a non-reentrant model
  2910 ;;
  2911                           
  2912                           
  2913                           ;psect for function ___wmul
  2914  013E                     ___wmul:	
  2915                           
  2916                           ;incstack = 0
  2917                           ; Regs used in ___wmul: [wreg+status,2+status,0]
  2918  013E  01F4               	clrf	___wmul@product
  2919  013F  01F5               	clrf	___wmul@product+1
  2920  0140                     l1238:	
  2921  0140  1C70               	btfss	___wmul@multiplier,0
  2922  0141  2948               	goto	l331
  2923  0142  0872               	movf	___wmul@multiplicand,w
  2924  0143  07F4               	addwf	___wmul@product,f
  2925  0144  1803               	skipnc
  2926  0145  0AF5               	incf	___wmul@product+1,f
  2927  0146  0873               	movf	___wmul@multiplicand+1,w
  2928  0147  07F5               	addwf	___wmul@product+1,f
  2929  0148                     l331:	
  2930  0148  3001               	movlw	1
  2931  0149                     u475:	
  2932  0149  1003               	clrc
  2933  014A  0DF2               	rlf	___wmul@multiplicand,f
  2934  014B  0DF3               	rlf	___wmul@multiplicand+1,f
  2935  014C  3EFF               	addlw	-1
  2936  014D  1D03               	skipz
  2937  014E  2949               	goto	u475
  2938  014F  3001               	movlw	1
  2939  0150                     u485:	
  2940  0150  1003               	clrc
  2941  0151  0CF1               	rrf	___wmul@multiplier+1,f
  2942  0152  0CF0               	rrf	___wmul@multiplier,f
  2943  0153  3EFF               	addlw	-1
  2944  0154  1D03               	skipz
  2945  0155  2950               	goto	u485
  2946  0156  0871               	movf	___wmul@multiplier+1,w
  2947  0157  0470               	iorwf	___wmul@multiplier,w
  2948  0158  1D03               	skipz
  2949  0159  2940               	goto	l1238
  2950  015A  0875               	movf	___wmul@product+1,w
  2951  015B  01F1               	clrf	?___wmul+1
  2952  015C  07F1               	addwf	?___wmul+1,f
  2953  015D  0874               	movf	___wmul@product,w
  2954  015E  01F0               	clrf	?___wmul
  2955  015F  07F0               	addwf	?___wmul,f
  2956  0160  0008               	return
  2957  0161                     __end_of___wmul:	
  2958                           
  2959                           	psect	text11
  2960  00A5                     __ptext11:	
  2961 ;; *************** function _locked *****************
  2962 ;; Defined at:
  2963 ;;		line 230 in file "D:\From old laptop\Subjects\Uni\3rd Year M\2nd sem\Embedded Systems\Final\door-lock-system\door-lo
      +ck-system.c"
  2964 ;; Parameters:    Size  Location     Type
  2965 ;;		None
  2966 ;; Auto vars:     Size  Location     Type
  2967 ;;		None
  2968 ;; Return value:  Size  Location     Type
  2969 ;;		None               void
  2970 ;; Registers used:
  2971 ;;		None
  2972 ;; Tracked objects:
  2973 ;;		On entry : 0/0
  2974 ;;		On exit  : 0/0
  2975 ;;		Unchanged: 0/0
  2976 ;; Data sizes:     COMMON   BANK0   BANK1   BANK3   BANK2
  2977 ;;      Params:         0       0       0       0       0
  2978 ;;      Locals:         0       0       0       0       0
  2979 ;;      Temps:          0       0       0       0       0
  2980 ;;      Totals:         0       0       0       0       0
  2981 ;;Total ram usage:        0 bytes
  2982 ;; Hardware stack levels used:    1
  2983 ;; This function calls:
  2984 ;;		Nothing
  2985 ;; This function is called by:
  2986 ;;		_verifyPIN
  2987 ;; This function uses a non-reentrant model
  2988 ;;
  2989                           
  2990                           
  2991                           ;psect for function _locked
  2992  00A5                     _locked:	
  2993  00A5                     l175:	
  2994                           ;incstack = 0
  2995                           ; Regs used in _locked: []
  2996                           ;door-lock-system.c: 232: while (1) {
  2997                           
  2998  00A5  28A5               	goto	l175
  2999  00A6                     __end_of_locked:	
  3000                           
  3001                           	psect	text12
  3002  0161                     __ptext12:	
  3003 ;; *************** function _initLCD *****************
  3004 ;; Defined at:
  3005 ;;		line 166 in file "D:\From old laptop\Subjects\Uni\3rd Year M\2nd sem\Embedded Systems\Final\door-lock-system\door-lo
      +ck-system.c"
  3006 ;; Parameters:    Size  Location     Type
  3007 ;;		None
  3008 ;; Auto vars:     Size  Location     Type
  3009 ;;		None
  3010 ;; Return value:  Size  Location     Type
  3011 ;;		None               void
  3012 ;; Registers used:
  3013 ;;		wreg, status,2, status,0, btemp+1, pclath, cstack
  3014 ;; Tracked objects:
  3015 ;;		On entry : 0/0
  3016 ;;		On exit  : 0/0
  3017 ;;		Unchanged: 0/0
  3018 ;; Data sizes:     COMMON   BANK0   BANK1   BANK3   BANK2
  3019 ;;      Params:         0       0       0       0       0
  3020 ;;      Locals:         0       0       0       0       0
  3021 ;;      Temps:          0       0       0       0       0
  3022 ;;      Totals:         0       0       0       0       0
  3023 ;;Total ram usage:        0 bytes
  3024 ;; Hardware stack levels used:    1
  3025 ;; Hardware stack levels required when called:    2
  3026 ;; This function calls:
  3027 ;;		_LCD_delay
  3028 ;;		_instCtrl
  3029 ;; This function is called by:
  3030 ;;		_verifyPIN
  3031 ;;		_main
  3032 ;; This function uses a non-reentrant model
  3033 ;;
  3034                           
  3035                           
  3036                           ;psect for function _initLCD
  3037  0161                     _initLCD:	
  3038                           
  3039                           ;door-lock-system.c: 167: LCD_delay(15);
  3040                           
  3041                           ;incstack = 0
  3042                           ; Regs used in _initLCD: [wreg+status,2+status,0+btemp+1+pclath+cstack]
  3043  0161  300F               	movlw	15
  3044  0162  00F0               	movwf	LCD_delay@MUL
  3045  0163  3000               	movlw	0
  3046  0164  00F1               	movwf	LCD_delay@MUL+1
  3047  0165  120A  118A  2187  120A  118A  	fcall	_LCD_delay
  3048                           
  3049                           ;door-lock-system.c: 168: instCtrl(0x38);
  3050  016A  3038               	movlw	56
  3051  016B  120A  118A  20E8  120A  118A  	fcall	_instCtrl
  3052                           
  3053                           ;door-lock-system.c: 169: instCtrl(0x08);
  3054  0170  3008               	movlw	8
  3055  0171  120A  118A  20E8  120A  118A  	fcall	_instCtrl
  3056                           
  3057                           ;door-lock-system.c: 170: instCtrl(0x01);
  3058  0176  3001               	movlw	1
  3059  0177  120A  118A  20E8  120A  118A  	fcall	_instCtrl
  3060                           
  3061                           ;door-lock-system.c: 171: instCtrl(0x06);
  3062  017C  3006               	movlw	6
  3063  017D  120A  118A  20E8  120A  118A  	fcall	_instCtrl
  3064                           
  3065                           ;door-lock-system.c: 172: instCtrl(0x0C);
  3066  0182  300C               	movlw	12
  3067  0183  120A  118A  20E8   	fcall	_instCtrl
  3068  0186  0008               	return
  3069  0187                     __end_of_initLCD:	
  3070                           
  3071                           	psect	text13
  3072  00E8                     __ptext13:	
  3073 ;; *************** function _instCtrl *****************
  3074 ;; Defined at:
  3075 ;;		line 157 in file "D:\From old laptop\Subjects\Uni\3rd Year M\2nd sem\Embedded Systems\Final\door-lock-system\door-lo
      +ck-system.c"
  3076 ;; Parameters:    Size  Location     Type
  3077 ;;  INST            1    wreg     unsigned char 
  3078 ;; Auto vars:     Size  Location     Type
  3079 ;;  INST            1    6[COMMON] unsigned char 
  3080 ;; Return value:  Size  Location     Type
  3081 ;;		None               void
  3082 ;; Registers used:
  3083 ;;		wreg, status,2, status,0, btemp+1, pclath, cstack
  3084 ;; Tracked objects:
  3085 ;;		On entry : 0/0
  3086 ;;		On exit  : 0/0
  3087 ;;		Unchanged: 0/0
  3088 ;; Data sizes:     COMMON   BANK0   BANK1   BANK3   BANK2
  3089 ;;      Params:         0       0       0       0       0
  3090 ;;      Locals:         1       0       0       0       0
  3091 ;;      Temps:          0       0       0       0       0
  3092 ;;      Totals:         1       0       0       0       0
  3093 ;;Total ram usage:        1 bytes
  3094 ;; Hardware stack levels used:    1
  3095 ;; Hardware stack levels required when called:    1
  3096 ;; This function calls:
  3097 ;;		_LCD_delay
  3098 ;; This function is called by:
  3099 ;;		_initLCD
  3100 ;;		_verifyPIN
  3101 ;;		_main
  3102 ;; This function uses a non-reentrant model
  3103 ;;
  3104                           
  3105                           
  3106                           ;psect for function _instCtrl
  3107  00E8                     _instCtrl:	
  3108                           
  3109                           ;incstack = 0
  3110                           ; Regs used in _instCtrl: [wreg+status,2+status,0+btemp+1+pclath+cstack]
  3111                           ;instCtrl@INST stored from wreg
  3112  00E8  00F6               	movwf	instCtrl@INST
  3113                           
  3114                           ;door-lock-system.c: 158: PORTB = INST;
  3115  00E9  0876               	movf	instCtrl@INST,w
  3116  00EA  1283               	bcf	3,5	;RP0=0, select bank0
  3117  00EB  1303               	bcf	3,6	;RP1=0, select bank0
  3118  00EC  0086               	movwf	6	;volatile
  3119                           
  3120                           ;door-lock-system.c: 159: RA0 = 0;
  3121  00ED  1005               	bcf	5,0	;volatile
  3122                           
  3123                           ;door-lock-system.c: 160: RA1 = 0;
  3124  00EE  1085               	bcf	5,1	;volatile
  3125                           
  3126                           ;door-lock-system.c: 161: RA2 = 1;
  3127  00EF  1505               	bsf	5,2	;volatile
  3128                           
  3129                           ;door-lock-system.c: 162: LCD_delay(1);
  3130  00F0  3001               	movlw	1
  3131  00F1  00F0               	movwf	LCD_delay@MUL
  3132  00F2  3000               	movlw	0
  3133  00F3  00F1               	movwf	LCD_delay@MUL+1
  3134  00F4  120A  118A  2187   	fcall	_LCD_delay
  3135                           
  3136                           ;door-lock-system.c: 163: RA2 = 0;
  3137  00F7  1283               	bcf	3,5	;RP0=0, select bank0
  3138  00F8  1303               	bcf	3,6	;RP1=0, select bank0
  3139  00F9  1105               	bcf	5,2	;volatile
  3140  00FA  0008               	return
  3141  00FB                     __end_of_instCtrl:	
  3142                           
  3143                           	psect	text14
  3144  011C                     __ptext14:	
  3145 ;; *************** function _displayMsg *****************
  3146 ;; Defined at:
  3147 ;;		line 184 in file "D:\From old laptop\Subjects\Uni\3rd Year M\2nd sem\Embedded Systems\Final\door-lock-system\door-lo
      +ck-system.c"
  3148 ;; Parameters:    Size  Location     Type
  3149 ;;  message         1    wreg     PTR const unsigned char 
  3150 ;;		 -> STR_18(11), STR_17(13), STR_16(11), STR_15(9), 
  3151 ;;		 -> STR_14(9), STR_13(11), STR_12(12), STR_11(11), 
  3152 ;;		 -> STR_10(13), STR_9(11), STR_8(7), STR_7(13), 
  3153 ;;		 -> STR_6(11), STR_5(15), STR_4(13), STR_3(13), 
  3154 ;;		 -> STR_2(11), STR_1(10), 
  3155 ;; Auto vars:     Size  Location     Type
  3156 ;;  message         1    9[COMMON] PTR const unsigned char 
  3157 ;;		 -> STR_18(11), STR_17(13), STR_16(11), STR_15(9), 
  3158 ;;		 -> STR_14(9), STR_13(11), STR_12(12), STR_11(11), 
  3159 ;;		 -> STR_10(13), STR_9(11), STR_8(7), STR_7(13), 
  3160 ;;		 -> STR_6(11), STR_5(15), STR_4(13), STR_3(13), 
  3161 ;;		 -> STR_2(11), STR_1(10), 
  3162 ;;  i               2    7[COMMON] int 
  3163 ;; Return value:  Size  Location     Type
  3164 ;;		None               void
  3165 ;; Registers used:
  3166 ;;		wreg, fsr0l, fsr0h, status,2, status,0, btemp+1, pclath, cstack
  3167 ;; Tracked objects:
  3168 ;;		On entry : 0/0
  3169 ;;		On exit  : 0/0
  3170 ;;		Unchanged: 0/0
  3171 ;; Data sizes:     COMMON   BANK0   BANK1   BANK3   BANK2
  3172 ;;      Params:         0       0       0       0       0
  3173 ;;      Locals:         3       0       0       0       0
  3174 ;;      Temps:          0       0       0       0       0
  3175 ;;      Totals:         3       0       0       0       0
  3176 ;;Total ram usage:        3 bytes
  3177 ;; Hardware stack levels used:    1
  3178 ;; Hardware stack levels required when called:    2
  3179 ;; This function calls:
  3180 ;;		_dataCtrl
  3181 ;; This function is called by:
  3182 ;;		_verifyPIN
  3183 ;;		_main
  3184 ;; This function uses a non-reentrant model
  3185 ;;
  3186                           
  3187                           
  3188                           ;psect for function _displayMsg
  3189  011C                     _displayMsg:	
  3190                           
  3191                           ;incstack = 0
  3192                           ; Regs used in _displayMsg: [wreg-fsr0h+status,2+status,0+btemp+1+pclath+cstack]
  3193                           ;displayMsg@message stored from wreg
  3194  011C  00F9               	movwf	displayMsg@message
  3195                           
  3196                           ;door-lock-system.c: 185: int i;
  3197                           ;door-lock-system.c: 186: for (i = 0; message[i] != '\0'; i++) {
  3198  011D  01F7               	clrf	displayMsg@i
  3199  011E  01F8               	clrf	displayMsg@i+1
  3200  011F                     l1352:	
  3201  011F  0877               	movf	displayMsg@i,w
  3202  0120  0779               	addwf	displayMsg@message,w
  3203  0121  0084               	movwf	4
  3204  0122  120A  118A  2003  120A  118A  	fcall	stringdir
  3205  0127  3800               	iorlw	0
  3206  0128  1903               	btfsc	3,2
  3207  0129  0008               	return
  3208                           
  3209                           ;door-lock-system.c: 187: dataCtrl(message[i]);
  3210  012A  0877               	movf	displayMsg@i,w
  3211  012B  0779               	addwf	displayMsg@message,w
  3212  012C  0084               	movwf	4
  3213  012D  120A  118A  2003  120A  118A  	fcall	stringdir
  3214  0132  120A  118A  20D5  120A  118A  	fcall	_dataCtrl
  3215  0137  3001               	movlw	1
  3216  0138  07F7               	addwf	displayMsg@i,f
  3217  0139  1803               	skipnc
  3218  013A  0AF8               	incf	displayMsg@i+1,f
  3219  013B  3000               	movlw	0
  3220  013C  07F8               	addwf	displayMsg@i+1,f
  3221  013D  291F               	goto	l1352
  3222  013E                     __end_of_displayMsg:	
  3223                           
  3224                           	psect	text15
  3225  00D5                     __ptext15:	
  3226 ;; *************** function _dataCtrl *****************
  3227 ;; Defined at:
  3228 ;;		line 175 in file "D:\From old laptop\Subjects\Uni\3rd Year M\2nd sem\Embedded Systems\Final\door-lock-system\door-lo
      +ck-system.c"
  3229 ;; Parameters:    Size  Location     Type
  3230 ;;  DATA            1    wreg     unsigned char 
  3231 ;; Auto vars:     Size  Location     Type
  3232 ;;  DATA            1    6[COMMON] unsigned char 
  3233 ;; Return value:  Size  Location     Type
  3234 ;;		None               void
  3235 ;; Registers used:
  3236 ;;		wreg, status,2, status,0, btemp+1, pclath, cstack
  3237 ;; Tracked objects:
  3238 ;;		On entry : 0/0
  3239 ;;		On exit  : 0/0
  3240 ;;		Unchanged: 0/0
  3241 ;; Data sizes:     COMMON   BANK0   BANK1   BANK3   BANK2
  3242 ;;      Params:         0       0       0       0       0
  3243 ;;      Locals:         1       0       0       0       0
  3244 ;;      Temps:          0       0       0       0       0
  3245 ;;      Totals:         1       0       0       0       0
  3246 ;;Total ram usage:        1 bytes
  3247 ;; Hardware stack levels used:    1
  3248 ;; Hardware stack levels required when called:    1
  3249 ;; This function calls:
  3250 ;;		_LCD_delay
  3251 ;; This function is called by:
  3252 ;;		_displayMsg
  3253 ;;		_setPass
  3254 ;;		_enterPass
  3255 ;; This function uses a non-reentrant model
  3256 ;;
  3257                           
  3258                           
  3259                           ;psect for function _dataCtrl
  3260  00D5                     _dataCtrl:	
  3261                           
  3262                           ;incstack = 0
  3263                           ; Regs used in _dataCtrl: [wreg+status,2+status,0+btemp+1+pclath+cstack]
  3264                           ;dataCtrl@DATA stored from wreg
  3265  00D5  00F6               	movwf	dataCtrl@DATA
  3266                           
  3267                           ;door-lock-system.c: 176: PORTB = DATA;
  3268  00D6  0876               	movf	dataCtrl@DATA,w
  3269  00D7  1283               	bcf	3,5	;RP0=0, select bank0
  3270  00D8  1303               	bcf	3,6	;RP1=0, select bank0
  3271  00D9  0086               	movwf	6	;volatile
  3272                           
  3273                           ;door-lock-system.c: 177: RA0 = 1;
  3274  00DA  1405               	bsf	5,0	;volatile
  3275                           
  3276                           ;door-lock-system.c: 178: RA1 = 0;
  3277  00DB  1085               	bcf	5,1	;volatile
  3278                           
  3279                           ;door-lock-system.c: 179: RA2 = 1;
  3280  00DC  1505               	bsf	5,2	;volatile
  3281                           
  3282                           ;door-lock-system.c: 180: LCD_delay(1);
  3283  00DD  3001               	movlw	1
  3284  00DE  00F0               	movwf	LCD_delay@MUL
  3285  00DF  3000               	movlw	0
  3286  00E0  00F1               	movwf	LCD_delay@MUL+1
  3287  00E1  120A  118A  2187   	fcall	_LCD_delay
  3288                           
  3289                           ;door-lock-system.c: 181: RA2 = 0;
  3290  00E4  1283               	bcf	3,5	;RP0=0, select bank0
  3291  00E5  1303               	bcf	3,6	;RP1=0, select bank0
  3292  00E6  1105               	bcf	5,2	;volatile
  3293  00E7  0008               	return
  3294  00E8                     __end_of_dataCtrl:	
  3295                           
  3296                           	psect	text16
  3297  0187                     __ptext16:	
  3298 ;; *************** function _LCD_delay *****************
  3299 ;; Defined at:
  3300 ;;		line 151 in file "D:\From old laptop\Subjects\Uni\3rd Year M\2nd sem\Embedded Systems\Final\door-lock-system\door-lo
      +ck-system.c"
  3301 ;; Parameters:    Size  Location     Type
  3302 ;;  MUL             2    0[COMMON] int 
  3303 ;; Auto vars:     Size  Location     Type
  3304 ;;  j               2    4[COMMON] int 
  3305 ;;  i               2    2[COMMON] int 
  3306 ;; Return value:  Size  Location     Type
  3307 ;;		None               void
  3308 ;; Registers used:
  3309 ;;		wreg, status,2, status,0, btemp+1
  3310 ;; Tracked objects:
  3311 ;;		On entry : 0/0
  3312 ;;		On exit  : 0/0
  3313 ;;		Unchanged: 0/0
  3314 ;; Data sizes:     COMMON   BANK0   BANK1   BANK3   BANK2
  3315 ;;      Params:         2       0       0       0       0
  3316 ;;      Locals:         4       0       0       0       0
  3317 ;;      Temps:          0       0       0       0       0
  3318 ;;      Totals:         6       0       0       0       0
  3319 ;;Total ram usage:        6 bytes
  3320 ;; Hardware stack levels used:    1
  3321 ;; This function calls:
  3322 ;;		Nothing
  3323 ;; This function is called by:
  3324 ;;		_instCtrl
  3325 ;;		_initLCD
  3326 ;;		_dataCtrl
  3327 ;; This function uses a non-reentrant model
  3328 ;;
  3329                           
  3330                           
  3331                           ;psect for function _LCD_delay
  3332  0187                     _LCD_delay:	
  3333                           
  3334                           ;door-lock-system.c: 152: int i, j;
  3335                           ;door-lock-system.c: 153: for (i = MUL; i != 0; i--)
  3336                           
  3337                           ;incstack = 0
  3338                           ; Regs used in _LCD_delay: [wreg+status,2+status,0+btemp+1]
  3339  0187  0871               	movf	LCD_delay@MUL+1,w
  3340  0188  01F3               	clrf	LCD_delay@i+1
  3341  0189  07F3               	addwf	LCD_delay@i+1,f
  3342  018A  0870               	movf	LCD_delay@MUL,w
  3343  018B  01F2               	clrf	LCD_delay@i
  3344  018C  07F2               	addwf	LCD_delay@i,f
  3345  018D                     L1:	
  3346  018D  0873               	movf	LCD_delay@i+1,w
  3347  018E  0472               	iorwf	LCD_delay@i,w
  3348  018F  1903               	btfsc	3,2
  3349  0190  0008               	return
  3350                           
  3351                           ;door-lock-system.c: 154: for (j = 0; j < 256; j++) {}
  3352  0191  01F4               	clrf	LCD_delay@j
  3353  0192  01F5               	clrf	LCD_delay@j+1
  3354  0193  0875               	movf	LCD_delay@j+1,w
  3355  0194  3A80               	xorlw	128
  3356  0195  00FF               	movwf	127
  3357  0196  3081               	movlw	129
  3358  0197  027F               	subwf	127,w
  3359  0198  1D03               	skipz
  3360  0199  299C               	goto	u545
  3361  019A  3000               	movlw	0
  3362  019B  0274               	subwf	LCD_delay@j,w
  3363  019C                     u545:	
  3364  019C  1803               	btfsc	3,0
  3365  019D  29AF               	goto	l1280
  3366  019E                     l1276:	
  3367  019E  3001               	movlw	1
  3368  019F  07F4               	addwf	LCD_delay@j,f
  3369  01A0  1803               	skipnc
  3370  01A1  0AF5               	incf	LCD_delay@j+1,f
  3371  01A2  3000               	movlw	0
  3372  01A3  07F5               	addwf	LCD_delay@j+1,f
  3373  01A4  0875               	movf	LCD_delay@j+1,w
  3374  01A5  3A80               	xorlw	128
  3375  01A6  00FF               	movwf	127
  3376  01A7  3081               	movlw	129
  3377  01A8  027F               	subwf	127,w
  3378  01A9  1D03               	skipz
  3379  01AA  29AD               	goto	u555
  3380  01AB  3000               	movlw	0
  3381  01AC  0274               	subwf	LCD_delay@j,w
  3382  01AD                     u555:	
  3383  01AD  1C03               	skipc
  3384  01AE  299E               	goto	l1276
  3385  01AF                     l1280:	
  3386  01AF  30FF               	movlw	255
  3387  01B0  07F2               	addwf	LCD_delay@i,f
  3388  01B1  1803               	skipnc
  3389  01B2  0AF3               	incf	LCD_delay@i+1,f
  3390  01B3  30FF               	movlw	255
  3391  01B4  07F3               	addwf	LCD_delay@i+1,f
  3392  01B5  298D               	goto	L1
  3393  01B6                     __end_of_LCD_delay:	
  3394  007E                     btemp	set	126	;btemp
  3395  007E                     wtemp	set	126
  3396  007E                     wtemp0	set	126
  3397  0080                     wtemp1	set	128
  3398  0082                     wtemp2	set	130
  3399  0084                     wtemp3	set	132
  3400  0086                     wtemp4	set	134
  3401  0088                     wtemp5	set	136
  3402  007F                     wtemp6	set	127
  3403  007E                     ttemp	set	126
  3404  007E                     ttemp0	set	126
  3405  0081                     ttemp1	set	129
  3406  0084                     ttemp2	set	132
  3407  0087                     ttemp3	set	135
  3408  007F                     ttemp4	set	127
  3409  007E                     ltemp	set	126
  3410  007E                     ltemp0	set	126
  3411  0082                     ltemp1	set	130
  3412  0086                     ltemp2	set	134
  3413  0080                     ltemp3	set	128


Data Sizes:
    Strings     121
    Constant    0
    Data        8
    BSS         17
    Persistent  0
    Stack       0

Auto Spaces:
    Space          Size  Autos    Used
    COMMON           14     14      14
    BANK0            80     21      47
    BANK1            80      0       0
    BANK3            96      0       0
    BANK2            96      0       0

Pointer List with Targets:

    displayMsg@message	PTR const unsigned char  size(1) Largest target is 15
		 -> STR_18(CODE[11]), STR_17(CODE[13]), STR_16(CODE[11]), STR_15(CODE[9]), 
		 -> STR_14(CODE[9]), STR_13(CODE[11]), STR_12(CODE[12]), STR_11(CODE[11]), 
		 -> STR_10(CODE[13]), STR_9(CODE[11]), STR_8(CODE[7]), STR_7(CODE[13]), 
		 -> STR_6(CODE[11]), STR_5(CODE[15]), STR_4(CODE[13]), STR_3(CODE[13]), 
		 -> STR_2(CODE[11]), STR_1(CODE[10]), 


Critical Paths under _main in COMMON

    _setPass->_dataCtrl
    _initialize->_setServoPosition
    _moveToPosition->_setServoPosition
    _setServoPosition->___wmul
    _initLCD->_instCtrl
    _instCtrl->_LCD_delay
    _displayMsg->_dataCtrl
    _dataCtrl->_LCD_delay

Critical Paths under _main in BANK0

    _main->_enterPass
    _enterPass->_verifyPIN
    _setServoCounterClockwise->_moveToPosition
    _setServoClockwise->_moveToPosition

Critical Paths under _main in BANK1

    None.

Critical Paths under _main in BANK3

    None.

Critical Paths under _main in BANK2

    None.

Call Graph Tables:

 ---------------------------------------------------------------------------------
 (Depth) Function   	        Calls       Base Space   Used Autos Params    Refs
 ---------------------------------------------------------------------------------
 (0) _main                                                 4     4      0    7650
                                             13 COMMON     1     1      0
                                             18 BANK0      3     3      0
                         _displayMsg
                          _enterPass
                            _initLCD
                         _initialize
                           _instCtrl
                            _setPass
                  _setServoClockwise
           _setServoCounterClockwise
                              _setup
 ---------------------------------------------------------------------------------
 (1) _setup                                                0     0      0       0
 ---------------------------------------------------------------------------------
 (1) _setPass                                              5     5      0     687
                                              7 COMMON     5     5      0
                           _dataCtrl
 ---------------------------------------------------------------------------------
 (1) _initialize                                           3     3      0     356
                                              0 BANK0      3     3      0
                   _setServoPosition
 ---------------------------------------------------------------------------------
 (1) _enterPass                                            5     5      0    3624
                                             13 BANK0      5     5      0
                           _dataCtrl
                          _verifyPIN
 ---------------------------------------------------------------------------------
 (2) _verifyPIN                                            7     7      0    3052
                                              6 BANK0      7     7      0
                         _displayMsg
                            _initLCD
                           _instCtrl
                             _locked
                  _setServoClockwise
           _setServoCounterClockwise
 ---------------------------------------------------------------------------------
 (1) _setServoCounterClockwise                             0     0      0     602
                     _moveToPosition
 ---------------------------------------------------------------------------------
 (1) _setServoClockwise                                    0     0      0     602
                     _moveToPosition
 ---------------------------------------------------------------------------------
 (2) _moveToPosition                                       6     6      0     602
                                              0 BANK0      6     6      0
                   _setServoPosition
 ---------------------------------------------------------------------------------
 (3) _setServoPosition                                     7     7      0     356
                                              6 COMMON     7     7      0
                             ___wmul
 ---------------------------------------------------------------------------------
 (4) ___wmul                                               6     2      4     198
                                              0 COMMON     6     2      4
 ---------------------------------------------------------------------------------
 (3) _locked                                               0     0      0       0
 ---------------------------------------------------------------------------------
 (1) _initLCD                                              0     0      0     568
                          _LCD_delay
                           _instCtrl
 ---------------------------------------------------------------------------------
 (1) _instCtrl                                             1     1      0     295
                                              6 COMMON     1     1      0
                          _LCD_delay
 ---------------------------------------------------------------------------------
 (3) _displayMsg                                           3     3      0     871
                                              7 COMMON     3     3      0
                           _dataCtrl
 ---------------------------------------------------------------------------------
 (2) _dataCtrl                                             1     1      0     295
                                              6 COMMON     1     1      0
                          _LCD_delay
 ---------------------------------------------------------------------------------
 (3) _LCD_delay                                            6     4      2     273
                                              0 COMMON     6     4      2
 ---------------------------------------------------------------------------------
 Estimated maximum stack depth 4
 ---------------------------------------------------------------------------------

 Call Graph Graphs:

 _main (ROOT)
   _displayMsg
     _dataCtrl
       _LCD_delay
   _enterPass
     _dataCtrl
       _LCD_delay
     _verifyPIN
       _displayMsg
         _dataCtrl
           _LCD_delay
       _initLCD
         _LCD_delay
         _instCtrl
           _LCD_delay
       _instCtrl
         _LCD_delay
       _locked
       _setServoClockwise
         _moveToPosition
           _setServoPosition
             ___wmul
       _setServoCounterClockwise
         _moveToPosition
           _setServoPosition
             ___wmul
   _initLCD
     _LCD_delay
     _instCtrl
       _LCD_delay
   _initialize
     _setServoPosition
       ___wmul
   _instCtrl
     _LCD_delay
   _setPass
     _dataCtrl
       _LCD_delay
   _setServoClockwise
     _moveToPosition
       _setServoPosition
         ___wmul
   _setServoCounterClockwise
     _moveToPosition
       _setServoPosition
         ___wmul
   _setup

 Address spaces:
Name               Size   Autos  Total    Cost      Usage
BANK3               60      0       0       9        0.0%
BITBANK3            60      0       0       8        0.0%
SFR3                 0      0       0       4        0.0%
BITSFR3              0      0       0       4        0.0%
BANK2               60      0       0      11        0.0%
BITBANK2            60      0       0      10        0.0%
SFR2                 0      0       0       5        0.0%
BITSFR2              0      0       0       5        0.0%
BANK1               50      0       0       7        0.0%
BITBANK1            50      0       0       6        0.0%
SFR1                 0      0       0       2        0.0%
BITSFR1              0      0       0       2        0.0%
BANK0               50     15      2F       5       58.8%
BITBANK0            50      0       1       4        1.3%
SFR0                 0      0       0       1        0.0%
BITSFR0              0      0       0       1        0.0%
COMMON               E      E       E       1      100.0%
BITCOMMON            E      0       0       0        0.0%
CODE                 0      0       0       0        0.0%
DATA                 0      0      3D      12        0.0%
ABS                  0      0      3D       3        0.0%
NULL                 0      0       0       0        0.0%
STACK                0      0       0       2        0.0%
EEDATA             100      0       0       0        0.0%


Microchip Technology PIC Macro Assembler V1.33 build 59893 
Symbol Table                                                                                   Tue May 20 21:37:17 2025

                                pc 0002                        __CFG_CP$OFF 0000  
                               l98 0209                                 fsr 0004  
              ___wmul@multiplicand 0072                                l214 04E2  
                              l331 0148                                l237 05B2  
                              l175 00A5                                l191 03A0  
                              l168 07D9                                l188 0391  
            moveToPosition@pos_166 0024                                _GIE 005F  
                              _RA0 0028                                _RA1 0029  
                              _RA2 002A                                _RD4 0044  
                              _PR2 0092                       __CFG_CPD$OFF 0000  
                              u525 023F                                _PIN 0035  
                              u545 019C                                u555 01AD  
                              u475 0149                                u485 0150  
                              u645 02E3                                u575 0260  
                              u585 0272                                u665 0306  
                              u745 0655                                u917 05A4  
                              u775 03C2                                u927 05DF  
                              u937 060C                                u947 065F  
                              u957 07E1                                u967 01CD  
                              u977 01DE                                u987 01F4  
                              u997 03CC                                fsr0 0004  
                              indf 0000                       __CFG_FOSC$XT 0000  
                     __CFG_LVP$OFF 0000                               l1300 029A  
                             l1310 02A2                               l1312 02BC  
                             l1500 073C                               l1238 0140  
                             l1254 0211                               l1280 01AF  
                             l1352 011F                               l1600 04A4  
                             l1512 0766                               l1440 066C  
                             l1370 0308                               l1362 02E5  
                             l1610 04BF                               l1506 0751  
                             l1276 019E                               l1524 078D  
                             l1452 0694                               l1700 055F  
                             l1366 02F7                               l1606 04B8  
                             l1614 03B7                               l1526 0792  
                             l1518 077B                               l1470 06D3  
                             l1446 067F                               l1534 07A7  
                             l1288 0274                               l1384 032B  
                             l1616 04F0                               l1552 03EC  
                             l1464 06BE                               l1298 027E  
                             l1570 0431                               l1546 03D9  
                             l1482 06FD                               l1458 06A9  
                             l1538 064C                               l1722 059A  
                             l1714 0585                               l1564 041A  
                             l1476 06E8                               l1740 05E7  
                             l1398 035B                               l1582 045F  
                             l1558 0403                               l1494 0727  
                             l1750 0613                               l1576 0448  
                             l1488 0712                               l1760 0631  
                             l1680 0531                               l1594 048D  
                             l1690 054F                               l1674 0529  
                             l1588 0476                               l1696 0557  
                             STR_1 005F                               STR_2 0049  
                             STR_3 0025                               STR_4 0018  
                             STR_5 0009                               STR_6 0049  
                             STR_7 0025                               STR_8 007B  
                             STR_9 0049                               _BRGH 04C2  
                             _CREN 00C4                               u1007 04EA  
                             u1017 0333                               u1027 038A  
                             u1037 039B                               u1047 03AA  
                             u1057 028E                               u1067 02B2  
                             u1077 02CA                               _PEIE 005E  
                             _RCIE 0465                               _RCIF 0065  
                             _OERR 00C1                               _SPEN 00C7  
                             _TXEN 04C5                               _TXIF 0064  
                             _SYNC 04C4                       __CFG_WRT$OFF 0000  
                             _main 04F4                        displayMsg@i 0077  
                             _tick 0046           setServoPosition@position 007C  
                             btemp 007E                      __CFG_BOREN$ON 0000  
                             ltemp 007E                               start 0000  
                             ttemp 007E                               wtemp 007E  
           moveToPosition@position 0025                 __size_of_LCD_delay 002F  
                moveToPosition@pos 0023                              ?_main 0070  
                            STR_10 0025                              STR_11 003E  
                            STR_12 0032                              STR_13 0054  
                            STR_14 0072                              STR_15 0069  
                            STR_16 0049                              STR_17 0025  
                    __CFG_WDTE$OFF 0000                              STR_18 003E  
                            _T2CON 0012                              _RCREG 001A  
                            _SPBRG 0099                              _PORTB 0006  
                            _PORTD 0008                              _TRISA 0085  
                            _TRISB 0086                              _TRISC 0087  
                            _TRISD 0088                              _TXREG 0019  
                    __CFG_PWRTE$ON 0000            __size_of_moveToPosition 0085  
                  __end_of_initLCD 0187                              _setup 00FB  
                            _trial 0048                    __end_of_setPass 07E7  
                            pclath 000A                              ltemp0 007E  
                            ltemp1 0082                              ltemp2 0086  
                            ltemp3 0080                              ttemp0 007E  
                            ttemp1 0081                              ttemp2 0084  
                            ttemp3 0087                              ttemp4 007F  
                 _setServoPosition 0200                              status 0003  
                            wtemp0 007E                              wtemp1 0080  
                            wtemp2 0082                              wtemp3 0084  
                            wtemp4 0086                              wtemp5 0088  
                            wtemp6 007F                    __initialization 07E7  
                     __end_of_main 0647         ??_setServoCounterClockwise 007D  
                           ??_main 0032                  __end_of_LCD_delay 01B6  
                _setServoClockwise 00A6                             _ADCON1 009F  
                           _CCPR1L 0015                             ?_setup 0070  
               ?_setServoClockwise 0070                             _TRISC2 043A  
                 __end_of_dataCtrl 00E8                ??_setServoClockwise 007D  
                           ___wmul 013E                             _locked 00A5  
                 __end_of_instCtrl 00FB     setServoPosition@scaledPosition 0078  
                     LCD_delay@MUL 0070                          ??_initLCD 0077  
        __end_of_setServoClockwise 00AD                          ??_setPass 0077  
                  _currentPosition 004D            __end_of__initialization 07FC  
                   __pcstackCOMMON 0070                       __pidataBANK0 00BC  
                    __end_of_setup 011C                     _moveToPosition 024D  
                          ??_setup 0070                         __pbssBANK0 0035  
               __size_of_enterPass 0141                     verifyPIN@match 0029  
                       __pmaintext 04F4   __end_of_setServoCounterClockwise 00B4  
                          ?___wmul 0070                            _CCP1CON 0017  
                          ?_locked 0070           __end_of_setServoPosition 024D  
           __end_of_moveToPosition 02D2                          ?_dataCtrl 0070  
       __size_of_setServoClockwise 0007                 __size_of_verifyPIN 00E1  
                       _displayMsg 011C                         __stringtab 0003  
             setServoPosition@duty 007A                         _correctPIN 003D  
                        ?_instCtrl 0070                    __size_of___wmul 0023  
                __end_of_enterPass 04F4                    __size_of_locked 0001  
                       _initialize 01B6                            __ptext1 00FB  
                          __ptext2 0647                            __ptext3 01B6  
                          __ptext4 03B3                            __ptext5 02D2  
                          __ptext6 00AD                            __ptext7 00A6  
                          __ptext8 024D                            __ptext9 0200  
                displayMsg@message 0079                    ?_moveToPosition 0070  
                          _initLCD 0161                         ??_dataCtrl 0076  
                          _setPass 0647                            _rx_data 0045  
                          clrloop0 00B5                          _LCD_delay 0187  
             end_of_initialization 07FC                         ??_instCtrl 0076  
                __end_of_verifyPIN 03B3                          _PORTCbits 0007  
                        _TRISCbits 0087                          _TRISDbits 0088  
__size_of_setServoCounterClockwise 0007                        ?_displayMsg 0070  
        ?_setServoCounterClockwise 0070                       instCtrl@INST 0076  
                       ?_LCD_delay 0070                     __end_of___wmul 0161  
                      ?_initialize 0070                      __pbitbssBANK0 0270  
                   __end_of_locked 00A6                         LCD_delay@i 0072  
                       LCD_delay@j 0074                         enterPass@j 0030  
              start_initialization 07E7                       dataCtrl@DATA 0076  
                         ??___wmul 0074                         init_fetch0 00C4  
              __size_of_displayMsg 0022                        __pdataBANK0 0046  
                         ??_locked 0070                  ?_setServoPosition 0070  
                        ___latbits 0002                 ??_setServoPosition 0076  
                    __pcstackBANK0 0020                      _SERVO_MID_POS 004B  
                    _SERVO_MAX_POS 004A                __end_of__stringdata 0082  
                    _SERVO_MIN_POS 004C                  __size_of_dataCtrl 0013  
                      ??_LCD_delay 0072                __size_of_initialize 004A  
                __size_of_instCtrl 0013                   ??_moveToPosition 0020  
                        __pstrings 0003                           ?_initLCD 0070  
                        _enterPass 03B3                           ?_setPass 0070  
                     _invalid_flag 0270                     __size_of_setup 0021  
                   ___wmul@product 0074                          clear_ram0 00B4  
                        main@INPUT 007D                          _verifyPIN 02D2  
                      __stringbase 0008                        __stringdata 0009  
                ___wmul@multiplier 0070                         ?_enterPass 0070  
                       verifyPIN@i 002B                       ??_displayMsg 0077  
               __end_of_displayMsg 013E                         ?_verifyPIN 0070  
                     ??_initialize 0020                 __end_of__stringtab 0009  
                         _dataCtrl 00D5                   __size_of_initLCD 0026  
                 __size_of_setPass 01A0                           __ptext10 013E  
                         __ptext11 00A5                           __ptext12 0161  
                         __ptext13 00E8                           __ptext14 011C  
                         __ptext15 00D5                           __ptext16 0187  
                   setPass@keyData 0079                      __size_of_main 0153  
                         _instCtrl 00E8                 __end_of_initialize 0200  
         _setServoCounterClockwise 00AD                        ??_enterPass 002D  
                         init_ram0 00C8                           setPass@i 007A  
        __size_of_setServoPosition 004D                          stringcode 0003  
                     _setpass_flag 0271                        ??_verifyPIN 0026  
                         stringdir 0003                           stringtab 0003  
                 enterPass@keyData 002F  
